; Listing generated by Microsoft (R) Optimizing Compiler Version 18.00.31101.0 

include listing.inc

INCLUDELIB OLDNAMES

PUBLIC	??_C@_02GMHACPFF@?$CFu?$AA@			; `string'
PUBLIC	??_C@_0CJ@PMIKKCGP@IOCompletion?5type?5?$HL0?$HN?5is?5not?5rec@ ; `string'
PUBLIC	??_C@_0BO@CACNOMAG@Cannot?5create?5worker?5threads?4?$AA@ ; `string'
PUBLIC	??_C@_0BN@KEEEJJFD@Cannot?5create?5accept?5socket?4?$AA@ ; `string'
EXTRN	__imp_GetSystemInfo:PROC
EXTRN	__imp_WSAAccept:PROC
EXTRN	__imp_GetQueuedCompletionStatus:PROC
;	COMDAT ??_C@_0BN@KEEEJJFD@Cannot?5create?5accept?5socket?4?$AA@
CONST	SEGMENT
??_C@_0BN@KEEEJJFD@Cannot?5create?5accept?5socket?4?$AA@ DB 'Cannot creat'
	DB	'e accept socket.', 00H			; `string'
CONST	ENDS
;	COMDAT ??_C@_0BO@CACNOMAG@Cannot?5create?5worker?5threads?4?$AA@
CONST	SEGMENT
??_C@_0BO@CACNOMAG@Cannot?5create?5worker?5threads?4?$AA@ DB 'Cannot crea'
	DB	'te worker threads.', 00H			; `string'
CONST	ENDS
;	COMDAT ??_C@_0CJ@PMIKKCGP@IOCompletion?5type?5?$HL0?$HN?5is?5not?5rec@
CONST	SEGMENT
??_C@_0CJ@PMIKKCGP@IOCompletion?5type?5?$HL0?$HN?5is?5not?5rec@ DB 'IOCom'
	DB	'pletion type {0} is not recognized.', 00H	; `string'
CONST	ENDS
;	COMDAT ??_C@_02GMHACPFF@?$CFu?$AA@
CONST	SEGMENT
??_C@_02GMHACPFF@?$CFu?$AA@ DB '%u', 00H		; `string'
PUBLIC	??$ToString@I@String@Trinity@@SA?AV01@AEBI@Z	; Trinity::String::ToString<unsigned int>
PUBLIC	??$_to_strings@I$$$V@String@Trinity@@CAXAEAV?$vector@VString@Trinity@@V?$allocator@VString@Trinity@@@std@@@std@@I@Z ; Trinity::String::_to_strings<unsigned int>
PUBLIC	??$Format@I@String@Trinity@@SA?AV01@AEBV01@I@Z	; Trinity::String::Format<unsigned int>
PUBLIC	??$WriteLine@I@Diagnostics@Trinity@@YAXW4LogLevel@01@AEBVString@1@I@Z ; Trinity::Diagnostics::WriteLine<unsigned int>
PUBLIC	?StartIOCPThreadPool@Network@Trinity@@YA_NXZ	; Trinity::Network::StartIOCPThreadPool
PUBLIC	?ProcessIOCompletion@Network@Trinity@@YA_NPEAXII@Z ; Trinity::Network::ProcessIOCompletion
PUBLIC	?AwaitIOCompletion@Network@Trinity@@YA_NAEAPEAXAEAI1@Z ; Trinity::Network::AwaitIOCompletion
PUBLIC	?SendResponse@Network@Trinity@@YAXPEAX@Z	; Trinity::Network::SendResponse
PUBLIC	?WorkerThreadProc@Network@Trinity@@YAKPEAX@Z	; Trinity::Network::WorkerThreadProc
PUBLIC	?GetProcessorCount@Environment@Trinity@@YAKXZ	; Trinity::Environment::GetProcessorCount
PUBLIC	?to_string@std@@YA?AV?$basic_string@DU?$char_traits@D@std@@V?$allocator@D@2@@1@I@Z ; std::to_string
PUBLIC	?SocketAcceptThreadProc@Network@Trinity@@YAKPEAX@Z ; Trinity::Network::SocketAcceptThreadProc
_Tuple_alloc DB	01H DUP (?)
	ALIGN	4

ignore	DB	01H DUP (?)
	ALIGN	4

allocator_arg DB 01H DUP (?)
	ALIGN	4

piecewise_construct DB 01H DUP (?)
	ALIGN	4

InvalidFileNameChars DD 029H DUP (?)
_BSS	ENDS
;	COMDAT pdata
pdata	SEGMENT
$pdata$??$ToString@I@String@Trinity@@SA?AV01@AEBI@Z DD imagerel $LN133
	DD	imagerel $LN133+145
	DD	imagerel $unwind$??$ToString@I@String@Trinity@@SA?AV01@AEBI@Z
pdata	ENDS
;	COMDAT pdata
pdata	SEGMENT
$pdata$?dtor$1@?0???$ToString@I@String@Trinity@@SA?AV01@AEBI@Z@4HA DD imagerel ?dtor$1@?0???$ToString@I@String@Trinity@@SA?AV01@AEBI@Z@4HA
	DD	imagerel ?dtor$1@?0???$ToString@I@String@Trinity@@SA?AV01@AEBI@Z@4HA+38
	DD	imagerel $unwind$?dtor$1@?0???$ToString@I@String@Trinity@@SA?AV01@AEBI@Z@4HA
pdata	ENDS
;	COMDAT pdata
pdata	SEGMENT
$pdata$??$_to_strings@I$$$V@String@Trinity@@CAXAEAV?$vector@VString@Trinity@@V?$allocator@VString@Trinity@@@std@@@std@@I@Z DD imagerel $LN112
	DD	imagerel $LN112+166
	DD	imagerel $unwind$??$_to_strings@I$$$V@String@Trinity@@CAXAEAV?$vector@VString@Trinity@@V?$allocator@VString@Trinity@@@std@@@std@@I@Z
pdata	ENDS
;	COMDAT pdata
pdata	SEGMENT
$pdata$?dtor$1@?0???$_to_strings@I$$$V@String@Trinity@@CAXAEAV?$vector@VString@Trinity@@V?$allocator@VString@Trinity@@@std@@@std@@I@Z@4HA DD imagerel ?dtor$1@?0???$_to_strings@I$$$V@String@Trinity@@CAXAEAV?$vector@VString@Trinity@@V?$allocator@VString@Trinity@@@std@@@std@@I@Z@4HA
	DD	imagerel ?dtor$1@?0???$_to_strings@I$$$V@String@Trinity@@CAXAEAV?$vector@VString@Trinity@@V?$allocator@VString@Trinity@@@std@@@std@@I@Z@4HA+28
	DD	imagerel $unwind$?dtor$1@?0???$_to_strings@I$$$V@String@Trinity@@CAXAEAV?$vector@VString@Trinity@@V?$allocator@VString@Trinity@@@std@@@std@@I@Z@4HA
pdata	ENDS
;	COMDAT pdata
pdata	SEGMENT
$pdata$??$Format@I@String@Trinity@@SA?AV01@AEBV01@I@Z DD imagerel $LN801
	DD	imagerel $LN801+1415
	DD	imagerel $unwind$??$Format@I@String@Trinity@@SA?AV01@AEBV01@I@Z
pdata	ENDS
;	COMDAT pdata
pdata	SEGMENT
$pdata$?dtor$0@?0???$Format@I@String@Trinity@@SA?AV01@AEBV01@I@Z@4HA DD imagerel ?dtor$0@?0???$Format@I@String@Trinity@@SA?AV01@AEBV01@I@Z@4HA
	DD	imagerel ?dtor$0@?0???$Format@I@String@Trinity@@SA?AV01@AEBV01@I@Z@4HA+47
	DD	imagerel $unwind$?dtor$0@?0???$Format@I@String@Trinity@@SA?AV01@AEBV01@I@Z@4HA
pdata	ENDS
;	COMDAT pdata
pdata	SEGMENT
$pdata$?dtor$9@?0???$Format@I@String@Trinity@@SA?AV01@AEBV01@I@Z@4HA DD imagerel ?dtor$9@?0???$Format@I@String@Trinity@@SA?AV01@AEBV01@I@Z@4HA
	DD	imagerel ?dtor$9@?0???$Format@I@String@Trinity@@SA?AV01@AEBV01@I@Z@4HA+34
	DD	imagerel $unwind$?dtor$9@?0???$Format@I@String@Trinity@@SA?AV01@AEBV01@I@Z@4HA
pdata	ENDS
;	COMDAT pdata
pdata	SEGMENT
$pdata$??$WriteLine@I@Diagnostics@Trinity@@YAXW4LogLevel@01@AEBVString@1@I@Z DD imagerel $LN39
	DD	imagerel $LN39+84
	DD	imagerel $unwind$??$WriteLine@I@Diagnostics@Trinity@@YAXW4LogLevel@01@AEBVString@1@I@Z
pdata	ENDS
;	COMDAT pdata
pdata	SEGMENT
$pdata$?StartIOCPThreadPool@Network@Trinity@@YA_NXZ DD imagerel $LN137
	DD	imagerel $LN137+333
	DD	imagerel $unwind$?StartIOCPThreadPool@Network@Trinity@@YA_NXZ
pdata	ENDS
;	COMDAT pdata
pdata	SEGMENT
$pdata$?ProcessIOCompletion@Network@Trinity@@YA_NPEAXII@Z DD imagerel $LN164
	DD	imagerel $LN164+552
	DD	imagerel $unwind$?ProcessIOCompletion@Network@Trinity@@YA_NPEAXII@Z
pdata	ENDS
;	COMDAT pdata
pdata	SEGMENT
$pdata$?AwaitIOCompletion@Network@Trinity@@YA_NAEAPEAXAEAI1@Z DD imagerel $LN29
	DD	imagerel $LN29+329
	DD	imagerel $unwind$?AwaitIOCompletion@Network@Trinity@@YA_NAEAPEAXAEAI1@Z
pdata	ENDS
;	COMDAT pdata
pdata	SEGMENT
$pdata$?SendResponse@Network@Trinity@@YAXPEAX@Z DD imagerel $LN20
	DD	imagerel $LN20+190
	DD	imagerel $unwind$?SendResponse@Network@Trinity@@YAXPEAX@Z
pdata	ENDS
;	COMDAT pdata
pdata	SEGMENT
$pdata$?WorkerThreadProc@Network@Trinity@@YAKPEAX@Z DD imagerel $LN50
	DD	imagerel $LN50+455
	DD	imagerel $unwind$?WorkerThreadProc@Network@Trinity@@YAKPEAX@Z
pdata	ENDS
;	COMDAT pdata
pdata	SEGMENT
$pdata$??__EInvalidFileNameChars@Path@IO@Trinity@@YAXXZ DD imagerel ??__EInvalidFileNameChars@Path@IO@Trinity@@YAXXZ
	DD	imagerel ??__EInvalidFileNameChars@Path@IO@Trinity@@YAXXZ+638
	DD	imagerel $unwind$??__EInvalidFileNameChars@Path@IO@Trinity@@YAXXZ
pdata	ENDS
;	COMDAT pdata
pdata	SEGMENT
$pdata$?GetProcessorCount@Environment@Trinity@@YAKXZ DD imagerel $LN4
	DD	imagerel $LN4+52
	DD	imagerel $unwind$?GetProcessorCount@Environment@Trinity@@YAKXZ
pdata	ENDS
;	COMDAT pdata
pdata	SEGMENT
$pdata$?to_string@std@@YA?AV?$basic_string@DU?$char_traits@D@std@@V?$allocator@D@2@@1@I@Z DD imagerel $LN50
	DD	imagerel $LN50+135
	DD	imagerel $unwind$?to_string@std@@YA?AV?$basic_string@DU?$char_traits@D@std@@V?$allocator@D@2@@1@I@Z
pdata	ENDS
;	COMDAT pdata
pdata	SEGMENT
$pdata$?dtor$0@?0??to_string@std@@YA?AV?$basic_string@DU?$char_traits@D@std@@V?$allocator@D@2@@1@I@Z@4HA DD imagerel ?dtor$0@?0??to_string@std@@YA?AV?$basic_string@DU?$char_traits@D@std@@V?$allocator@D@2@@1@I@Z@4HA
	DD	imagerel ?dtor$0@?0??to_string@std@@YA?AV?$basic_string@DU?$char_traits@D@std@@V?$allocator@D@2@@1@I@Z@4HA+41
	DD	imagerel $unwind$?dtor$0@?0??to_string@std@@YA?AV?$basic_string@DU?$char_traits@D@std@@V?$allocator@D@2@@1@I@Z@4HA
pdata	ENDS
;	COMDAT pdata
pdata	SEGMENT
$pdata$?SocketAcceptThreadProc@Network@Trinity@@YAKPEAX@Z DD imagerel $LN278
	DD	imagerel $LN278+793
	DD	imagerel $unwind$?SocketAcceptThreadProc@Network@Trinity@@YAKPEAX@Z
;	COMDAT xdata
xdata	SEGMENT
$ip2state$?SocketAcceptThreadProc@Network@Trinity@@YAKPEAX@Z DD imagerel ?SocketAcceptThreadProc@Network@Trinity@@YAKPEAX@Z
	DD	0ffffffffH
	DD	imagerel ?SocketAcceptThreadProc@Network@Trinity@@YAKPEAX@Z+516
	DD	06H
	DD	imagerel ?SocketAcceptThreadProc@Network@Trinity@@YAKPEAX@Z+530
	DD	07H
	DD	imagerel ?SocketAcceptThreadProc@Network@Trinity@@YAKPEAX@Z+542
	DD	06H
	DD	imagerel ?SocketAcceptThreadProc@Network@Trinity@@YAKPEAX@Z+574
	DD	0ffffffffH
	DD	imagerel ?SocketAcceptThreadProc@Network@Trinity@@YAKPEAX@Z+658
	DD	01H
	DD	imagerel ?SocketAcceptThreadProc@Network@Trinity@@YAKPEAX@Z+672
	DD	02H
	DD	imagerel ?SocketAcceptThreadProc@Network@Trinity@@YAKPEAX@Z+684
	DD	01H
	DD	imagerel ?SocketAcceptThreadProc@Network@Trinity@@YAKPEAX@Z+716
	DD	0ffffffffH
xdata	ENDS
;	COMDAT xdata
xdata	SEGMENT
$stateUnwindMap$?SocketAcceptThreadProc@Network@Trinity@@YAKPEAX@Z DD 0ffffffffH
	DD	imagerel ?dtor$2@?0??SocketAcceptThreadProc@Network@Trinity@@YAKPEAX@Z@4HA
	DD	0ffffffffH
	DD	imagerel ?dtor$0@?0??SocketAcceptThreadProc@Network@Trinity@@YAKPEAX@Z@4HA
	DD	01H
	DD	imagerel ?dtor$3@?0??SocketAcceptThreadProc@Network@Trinity@@YAKPEAX@Z@4HA
	DD	01H
	DD	imagerel ?dtor$4@?0??SocketAcceptThreadProc@Network@Trinity@@YAKPEAX@Z@4HA
	DD	0ffffffffH
	DD	imagerel ?dtor$5@?0??SocketAcceptThreadProc@Network@Trinity@@YAKPEAX@Z@4HA
	DD	0ffffffffH
	DD	imagerel ?dtor$6@?0??SocketAcceptThreadProc@Network@Trinity@@YAKPEAX@Z@4HA
	DD	0ffffffffH
	DD	imagerel ?dtor$1@?0??SocketAcceptThreadProc@Network@Trinity@@YAKPEAX@Z@4HA
	DD	06H
	DD	imagerel ?dtor$7@?0??SocketAcceptThreadProc@Network@Trinity@@YAKPEAX@Z@4HA
	DD	06H
	DD	imagerel ?dtor$8@?0??SocketAcceptThreadProc@Network@Trinity@@YAKPEAX@Z@4HA
	DD	0ffffffffH
	DD	imagerel ?dtor$9@?0??SocketAcceptThreadProc@Network@Trinity@@YAKPEAX@Z@4HA
xdata	ENDS
;	COMDAT CONST
CONST	SEGMENT
$cppxdata$?SocketAcceptThreadProc@Network@Trinity@@YAKPEAX@Z DD 019930522H
	DD	0aH
	DD	imagerel $stateUnwindMap$?SocketAcceptThreadProc@Network@Trinity@@YAKPEAX@Z
	DD	00H
	DD	00H
	DD	09H
	DD	imagerel $ip2state$?SocketAcceptThreadProc@Network@Trinity@@YAKPEAX@Z
	DD	040H
	DD	00H
	DD	00H
CONST	ENDS
;	COMDAT xdata
xdata	SEGMENT
$unwind$?SocketAcceptThreadProc@Network@Trinity@@YAKPEAX@Z DD 092411H
	DD	0183424H
	DD	0120114H
	DD	0e006f008H
	DD	060037004H
	DD	05002H
	DD	imagerel __CxxFrameHandler3
	DD	imagerel $cppxdata$?SocketAcceptThreadProc@Network@Trinity@@YAKPEAX@Z
xdata	ENDS
;	COMDAT xdata
xdata	SEGMENT
$unwind$?dtor$0@?0??to_string@std@@YA?AV?$basic_string@DU?$char_traits@D@std@@V?$allocator@D@2@@1@I@Z@4HA DD 020601H
	DD	050023206H
xdata	ENDS
;	COMDAT xdata
xdata	SEGMENT
$ip2state$?to_string@std@@YA?AV?$basic_string@DU?$char_traits@D@std@@V?$allocator@D@2@@1@I@Z DD imagerel ?to_string@std@@YA?AV?$basic_string@DU?$char_traits@D@std@@V?$allocator@D@2@@1@I@Z
	DD	0ffffffffH
	DD	imagerel ?to_string@std@@YA?AV?$basic_string@DU?$char_traits@D@std@@V?$allocator@D@2@@1@I@Z+109
	DD	00H
xdata	ENDS
;	COMDAT xdata
xdata	SEGMENT
$stateUnwindMap$?to_string@std@@YA?AV?$basic_string@DU?$char_traits@D@std@@V?$allocator@D@2@@1@I@Z DD 0ffffffffH
	DD	imagerel ?dtor$0@?0??to_string@std@@YA?AV?$basic_string@DU?$char_traits@D@std@@V?$allocator@D@2@@1@I@Z@4HA
xdata	ENDS
;	COMDAT CONST
CONST	SEGMENT
$cppxdata$?to_string@std@@YA?AV?$basic_string@DU?$char_traits@D@std@@V?$allocator@D@2@@1@I@Z DD 019930522H
	DD	01H
	DD	imagerel $stateUnwindMap$?to_string@std@@YA?AV?$basic_string@DU?$char_traits@D@std@@V?$allocator@D@2@@1@I@Z
	DD	00H
	DD	00H
	DD	02H
	DD	imagerel $ip2state$?to_string@std@@YA?AV?$basic_string@DU?$char_traits@D@std@@V?$allocator@D@2@@1@I@Z
	DD	028H
	DD	00H
	DD	00H
CONST	ENDS
;	COMDAT xdata
xdata	SEGMENT
$unwind$?to_string@std@@YA?AV?$basic_string@DU?$char_traits@D@std@@V?$allocator@D@2@@1@I@Z DD 041811H
	DD	0113418H
	DD	07008d20cH
	DD	imagerel __CxxFrameHandler3
	DD	imagerel $cppxdata$?to_string@std@@YA?AV?$basic_string@DU?$char_traits@D@std@@V?$allocator@D@2@@1@I@Z
xdata	ENDS
;	COMDAT xdata
xdata	SEGMENT
$unwind$?GetProcessorCount@Environment@Trinity@@YAKXZ DD 010701H
	DD	0a207H
xdata	ENDS
;	COMDAT xdata
xdata	SEGMENT
$unwind$??__EInvalidFileNameChars@Path@IO@Trinity@@YAXXZ DD 020901H
	DD	050023209H
xdata	ENDS
;	COMDAT xdata
xdata	SEGMENT
$unwind$?WorkerThreadProc@Network@Trinity@@YAKPEAX@Z DD 091801H
	DD	0303418H
	DD	02a0118H
	DD	0e00af00cH
	DD	060077008H
	DD	05006H
xdata	ENDS
;	COMDAT xdata
xdata	SEGMENT
$unwind$?SendResponse@Network@Trinity@@YAXPEAX@Z DD 050d01H
	DD	02a340dH
	DD	028010dH
	DD	07006H
xdata	ENDS
;	COMDAT xdata
xdata	SEGMENT
$unwind$?AwaitIOCompletion@Network@Trinity@@YA_NAEAPEAXAEAI1@Z DD 091c01H
	DD	030741cH
	DD	02f641cH
	DD	02e341cH
	DD	02c011cH
	DD	05010H
xdata	ENDS
;	COMDAT xdata
xdata	SEGMENT
$ip2state$?ProcessIOCompletion@Network@Trinity@@YA_NPEAXII@Z DD imagerel ?ProcessIOCompletion@Network@Trinity@@YA_NPEAXII@Z
	DD	0ffffffffH
	DD	imagerel ?ProcessIOCompletion@Network@Trinity@@YA_NPEAXII@Z+374
	DD	01H
	DD	imagerel ?ProcessIOCompletion@Network@Trinity@@YA_NPEAXII@Z+393
	DD	02H
	DD	imagerel ?ProcessIOCompletion@Network@Trinity@@YA_NPEAXII@Z+407
	DD	01H
	DD	imagerel ?ProcessIOCompletion@Network@Trinity@@YA_NPEAXII@Z+444
	DD	0ffffffffH
xdata	ENDS
;	COMDAT xdata
xdata	SEGMENT
$stateUnwindMap$?ProcessIOCompletion@Network@Trinity@@YA_NPEAXII@Z DD 0ffffffffH
	DD	imagerel ?dtor$1@?0??ProcessIOCompletion@Network@Trinity@@YA_NPEAXII@Z@4HA
	DD	0ffffffffH
	DD	imagerel ?dtor$0@?0??ProcessIOCompletion@Network@Trinity@@YA_NPEAXII@Z@4HA
	DD	01H
	DD	imagerel ?dtor$2@?0??ProcessIOCompletion@Network@Trinity@@YA_NPEAXII@Z@4HA
	DD	01H
	DD	imagerel ?dtor$3@?0??ProcessIOCompletion@Network@Trinity@@YA_NPEAXII@Z@4HA
	DD	0ffffffffH
	DD	imagerel ?dtor$4@?0??ProcessIOCompletion@Network@Trinity@@YA_NPEAXII@Z@4HA
xdata	ENDS
;	COMDAT CONST
CONST	SEGMENT
$cppxdata$?ProcessIOCompletion@Network@Trinity@@YA_NPEAXII@Z DD 019930522H
	DD	05H
	DD	imagerel $stateUnwindMap$?ProcessIOCompletion@Network@Trinity@@YA_NPEAXII@Z
	DD	00H
	DD	00H
	DD	05H
	DD	imagerel $ip2state$?ProcessIOCompletion@Network@Trinity@@YA_NPEAXII@Z
	DD	078H
	DD	00H
	DD	00H
CONST	ENDS
;	COMDAT xdata
xdata	SEGMENT
$unwind$?ProcessIOCompletion@Network@Trinity@@YA_NPEAXII@Z DD 0b2911H
	DD	035e429H
	DD	0347425H
	DD	0336421H
	DD	032341dH
	DD	0300110H
	DD	05004H
	DD	imagerel __CxxFrameHandler3
	DD	imagerel $cppxdata$?ProcessIOCompletion@Network@Trinity@@YA_NPEAXII@Z
xdata	ENDS
;	COMDAT xdata
xdata	SEGMENT
$ip2state$?StartIOCPThreadPool@Network@Trinity@@YA_NXZ DD imagerel ?StartIOCPThreadPool@Network@Trinity@@YA_NXZ
	DD	0ffffffffH
	DD	imagerel ?StartIOCPThreadPool@Network@Trinity@@YA_NXZ+195
	DD	01H
	DD	imagerel ?StartIOCPThreadPool@Network@Trinity@@YA_NXZ+209
	DD	02H
	DD	imagerel ?StartIOCPThreadPool@Network@Trinity@@YA_NXZ+223
	DD	01H
	DD	imagerel ?StartIOCPThreadPool@Network@Trinity@@YA_NXZ+255
	DD	0ffffffffH
xdata	ENDS
;	COMDAT xdata
xdata	SEGMENT
$stateUnwindMap$?StartIOCPThreadPool@Network@Trinity@@YA_NXZ DD 0ffffffffH
	DD	imagerel ?dtor$1@?0??StartIOCPThreadPool@Network@Trinity@@YA_NXZ@4HA
	DD	0ffffffffH
	DD	imagerel ?dtor$0@?0??StartIOCPThreadPool@Network@Trinity@@YA_NXZ@4HA
	DD	01H
	DD	imagerel ?dtor$2@?0??StartIOCPThreadPool@Network@Trinity@@YA_NXZ@4HA
	DD	01H
	DD	imagerel ?dtor$3@?0??StartIOCPThreadPool@Network@Trinity@@YA_NXZ@4HA
	DD	0ffffffffH
	DD	imagerel ?dtor$4@?0??StartIOCPThreadPool@Network@Trinity@@YA_NXZ@4HA
xdata	ENDS
;	COMDAT CONST
CONST	SEGMENT
$cppxdata$?StartIOCPThreadPool@Network@Trinity@@YA_NXZ DD 019930522H
	DD	05H
	DD	imagerel $stateUnwindMap$?StartIOCPThreadPool@Network@Trinity@@YA_NXZ
	DD	00H
	DD	00H
	DD	05H
	DD	imagerel $ip2state$?StartIOCPThreadPool@Network@Trinity@@YA_NXZ
	DD	030H
	DD	00H
	DD	00H
CONST	ENDS
;	COMDAT xdata
xdata	SEGMENT
$unwind$?StartIOCPThreadPool@Network@Trinity@@YA_NXZ DD 092311H
	DD	0177423H
	DD	016641fH
	DD	015341bH
	DD	012010fH
	DD	05004H
	DD	imagerel __CxxFrameHandler3
	DD	imagerel $cppxdata$?StartIOCPThreadPool@Network@Trinity@@YA_NXZ
xdata	ENDS
;	COMDAT xdata
xdata	SEGMENT
$ip2state$??$WriteLine@I@Diagnostics@Trinity@@YAXW4LogLevel@01@AEBVString@1@I@Z DD imagerel ??$WriteLine@I@Diagnostics@Trinity@@YAXW4LogLevel@01@AEBVString@1@I@Z
	DD	0ffffffffH
	DD	imagerel ??$WriteLine@I@Diagnostics@Trinity@@YAXW4LogLevel@01@AEBVString@1@I@Z+24
	DD	00H
	DD	imagerel ??$WriteLine@I@Diagnostics@Trinity@@YAXW4LogLevel@01@AEBVString@1@I@Z+38
	DD	0ffffffffH
xdata	ENDS
;	COMDAT xdata
xdata	SEGMENT
$stateUnwindMap$??$WriteLine@I@Diagnostics@Trinity@@YAXW4LogLevel@01@AEBVString@1@I@Z DD 0ffffffffH
	DD	imagerel ?dtor$0@?0???$WriteLine@I@Diagnostics@Trinity@@YAXW4LogLevel@01@AEBVString@1@I@Z@4HA
	DD	0ffffffffH
	DD	imagerel ?dtor$1@?0???$WriteLine@I@Diagnostics@Trinity@@YAXW4LogLevel@01@AEBVString@1@I@Z@4HA
xdata	ENDS
;	COMDAT CONST
CONST	SEGMENT
$cppxdata$??$WriteLine@I@Diagnostics@Trinity@@YAXW4LogLevel@01@AEBVString@1@I@Z DD 019930522H
	DD	02H
	DD	imagerel $stateUnwindMap$??$WriteLine@I@Diagnostics@Trinity@@YAXW4LogLevel@01@AEBVString@1@I@Z
	DD	00H
	DD	00H
	DD	03H
	DD	imagerel $ip2state$??$WriteLine@I@Diagnostics@Trinity@@YAXW4LogLevel@01@AEBVString@1@I@Z
	DD	020H
	DD	00H
	DD	00H
CONST	ENDS
;	COMDAT xdata
xdata	SEGMENT
$unwind$??$WriteLine@I@Diagnostics@Trinity@@YAXW4LogLevel@01@AEBVString@1@I@Z DD 010d11H
	DD	0a204H
	DD	imagerel __CxxFrameHandler3
	DD	imagerel $cppxdata$??$WriteLine@I@Diagnostics@Trinity@@YAXW4LogLevel@01@AEBVString@1@I@Z
xdata	ENDS
;	COMDAT xdata
xdata	SEGMENT
$unwind$?dtor$9@?0???$Format@I@String@Trinity@@SA?AV01@AEBV01@I@Z@4HA DD 020601H
	DD	050023206H
xdata	ENDS
;	COMDAT xdata
xdata	SEGMENT
$unwind$?dtor$0@?0???$Format@I@String@Trinity@@SA?AV01@AEBV01@I@Z@4HA DD 020601H
	DD	050023206H
xdata	ENDS
;	COMDAT xdata
xdata	SEGMENT
$ip2state$??$Format@I@String@Trinity@@SA?AV01@AEBV01@I@Z DD imagerel ??$Format@I@String@Trinity@@SA?AV01@AEBV01@I@Z
	DD	0ffffffffH
	DD	imagerel ??$Format@I@String@Trinity@@SA?AV01@AEBV01@I@Z+43
	DD	00H
	DD	imagerel ??$Format@I@String@Trinity@@SA?AV01@AEBV01@I@Z+97
	DD	02H
	DD	imagerel ??$Format@I@String@Trinity@@SA?AV01@AEBV01@I@Z+117
	DD	03H
	DD	imagerel ??$Format@I@String@Trinity@@SA?AV01@AEBV01@I@Z+142
	DD	04H
	DD	imagerel ??$Format@I@String@Trinity@@SA?AV01@AEBV01@I@Z+174
	DD	03H
	DD	imagerel ??$Format@I@String@Trinity@@SA?AV01@AEBV01@I@Z+182
	DD	02H
	DD	imagerel ??$Format@I@String@Trinity@@SA?AV01@AEBV01@I@Z+316
	DD	07H
	DD	imagerel ??$Format@I@String@Trinity@@SA?AV01@AEBV01@I@Z+482
	DD	09H
	DD	imagerel ??$Format@I@String@Trinity@@SA?AV01@AEBV01@I@Z+499
	DD	07H
	DD	imagerel ??$Format@I@String@Trinity@@SA?AV01@AEBV01@I@Z+644
	DD	0cH
	DD	imagerel ??$Format@I@String@Trinity@@SA?AV01@AEBV01@I@Z+721
	DD	0dH
	DD	imagerel ??$Format@I@String@Trinity@@SA?AV01@AEBV01@I@Z+743
	DD	0eH
	DD	imagerel ??$Format@I@String@Trinity@@SA?AV01@AEBV01@I@Z+884
	DD	0dH
	DD	imagerel ??$Format@I@String@Trinity@@SA?AV01@AEBV01@I@Z+919
	DD	0cH
	DD	imagerel ??$Format@I@String@Trinity@@SA?AV01@AEBV01@I@Z+1185
	DD	07H
	DD	imagerel ??$Format@I@String@Trinity@@SA?AV01@AEBV01@I@Z+1222
	DD	02H
	DD	imagerel ??$Format@I@String@Trinity@@SA?AV01@AEBV01@I@Z+1310
	DD	00H
xdata	ENDS
;	COMDAT xdata
xdata	SEGMENT
$stateUnwindMap$??$Format@I@String@Trinity@@SA?AV01@AEBV01@I@Z DD 0ffffffffH
	DD	imagerel ?dtor$0@?0???$Format@I@String@Trinity@@SA?AV01@AEBV01@I@Z@4HA
	DD	00H
	DD	imagerel ?dtor$7@?0???$Format@I@String@Trinity@@SA?AV01@AEBV01@I@Z@4HA
	DD	00H
	DD	imagerel ?dtor$1@?0???$Format@I@String@Trinity@@SA?AV01@AEBV01@I@Z@4HA
	DD	02H
	DD	imagerel ?dtor$8@?0???$Format@I@String@Trinity@@SA?AV01@AEBV01@I@Z@4HA
	DD	03H
	DD	imagerel ?dtor$9@?0???$Format@I@String@Trinity@@SA?AV01@AEBV01@I@Z@4HA
	DD	04H
	DD	imagerel ?dtor$10@?0???$Format@I@String@Trinity@@SA?AV01@AEBV01@I@Z@4HA
	DD	02H
	DD	imagerel ?dtor$11@?0???$Format@I@String@Trinity@@SA?AV01@AEBV01@I@Z@4HA
	DD	02H
	DD	imagerel ?dtor$2@?0???$Format@I@String@Trinity@@SA?AV01@AEBV01@I@Z@4HA
	DD	02H
	DD	imagerel ?dtor$12@?0???$Format@I@String@Trinity@@SA?AV01@AEBV01@I@Z@4HA
	DD	07H
	DD	imagerel ?dtor$3@?0???$Format@I@String@Trinity@@SA?AV01@AEBV01@I@Z@4HA
	DD	07H
	DD	imagerel ?dtor$13@?0???$Format@I@String@Trinity@@SA?AV01@AEBV01@I@Z@4HA
	DD	07H
	DD	imagerel ?dtor$14@?0???$Format@I@String@Trinity@@SA?AV01@AEBV01@I@Z@4HA
	DD	07H
	DD	imagerel ?dtor$4@?0???$Format@I@String@Trinity@@SA?AV01@AEBV01@I@Z@4HA
	DD	0cH
	DD	imagerel ?dtor$5@?0???$Format@I@String@Trinity@@SA?AV01@AEBV01@I@Z@4HA
	DD	0dH
	DD	imagerel ?dtor$6@?0???$Format@I@String@Trinity@@SA?AV01@AEBV01@I@Z@4HA
	DD	0dH
	DD	imagerel ?dtor$15@?0???$Format@I@String@Trinity@@SA?AV01@AEBV01@I@Z@4HA
	DD	0cH
	DD	imagerel ?dtor$16@?0???$Format@I@String@Trinity@@SA?AV01@AEBV01@I@Z@4HA
	DD	07H
	DD	imagerel ?dtor$17@?0???$Format@I@String@Trinity@@SA?AV01@AEBV01@I@Z@4HA
	DD	02H
	DD	imagerel ?dtor$18@?0???$Format@I@String@Trinity@@SA?AV01@AEBV01@I@Z@4HA
	DD	00H
	DD	imagerel ?dtor$19@?0???$Format@I@String@Trinity@@SA?AV01@AEBV01@I@Z@4HA
xdata	ENDS
;	COMDAT CONST
CONST	SEGMENT
$cppxdata$??$Format@I@String@Trinity@@SA?AV01@AEBV01@I@Z DD 019930522H
	DD	014H
	DD	imagerel $stateUnwindMap$??$Format@I@String@Trinity@@SA?AV01@AEBV01@I@Z
	DD	00H
	DD	00H
	DD	012H
	DD	imagerel $ip2state$??$Format@I@String@Trinity@@SA?AV01@AEBV01@I@Z
	DD	0e8H
	DD	00H
	DD	00H
CONST	ENDS
;	COMDAT xdata
xdata	SEGMENT
$unwind$??$Format@I@String@Trinity@@SA?AV01@AEBV01@I@Z DD 0a2511H
	DD	01f011dH
	DD	0e00ff011H
	DD	0c00bd00dH
	DD	060087009H
	DD	050063007H
	DD	imagerel __CxxFrameHandler3
	DD	imagerel $cppxdata$??$Format@I@String@Trinity@@SA?AV01@AEBV01@I@Z
xdata	ENDS
;	COMDAT xdata
xdata	SEGMENT
$unwind$?dtor$1@?0???$_to_strings@I$$$V@String@Trinity@@CAXAEAV?$vector@VString@Trinity@@V?$allocator@VString@Trinity@@@std@@@std@@I@Z@4HA DD 020601H
	DD	050023206H
xdata	ENDS
;	COMDAT xdata
xdata	SEGMENT
$ip2state$??$_to_strings@I$$$V@String@Trinity@@CAXAEAV?$vector@VString@Trinity@@V?$allocator@VString@Trinity@@@std@@@std@@I@Z DD imagerel ??$_to_strings@I$$$V@String@Trinity@@CAXAEAV?$vector@VString@Trinity@@V?$allocator@VString@Trinity@@@std@@@std@@I@Z
	DD	0ffffffffH
	DD	imagerel ??$_to_strings@I$$$V@String@Trinity@@CAXAEAV?$vector@VString@Trinity@@V?$allocator@VString@Trinity@@@std@@@std@@I@Z+44
	DD	00H
	DD	imagerel ??$_to_strings@I$$$V@String@Trinity@@CAXAEAV?$vector@VString@Trinity@@V?$allocator@VString@Trinity@@@std@@@std@@I@Z+76
	DD	01H
	DD	imagerel ??$_to_strings@I$$$V@String@Trinity@@CAXAEAV?$vector@VString@Trinity@@V?$allocator@VString@Trinity@@@std@@@std@@I@Z+109
	DD	00H
	DD	imagerel ??$_to_strings@I$$$V@String@Trinity@@CAXAEAV?$vector@VString@Trinity@@V?$allocator@VString@Trinity@@@std@@@std@@I@Z+114
	DD	0ffffffffH
xdata	ENDS
;	COMDAT xdata
xdata	SEGMENT
$stateUnwindMap$??$_to_strings@I$$$V@String@Trinity@@CAXAEAV?$vector@VString@Trinity@@V?$allocator@VString@Trinity@@@std@@@std@@I@Z DD 0ffffffffH
	DD	imagerel ?dtor$0@?0???$_to_strings@I$$$V@String@Trinity@@CAXAEAV?$vector@VString@Trinity@@V?$allocator@VString@Trinity@@@std@@@std@@I@Z@4HA
	DD	00H
	DD	imagerel ?dtor$1@?0???$_to_strings@I$$$V@String@Trinity@@CAXAEAV?$vector@VString@Trinity@@V?$allocator@VString@Trinity@@@std@@@std@@I@Z@4HA
	DD	01H
	DD	imagerel ?dtor$2@?0???$_to_strings@I$$$V@String@Trinity@@CAXAEAV?$vector@VString@Trinity@@V?$allocator@VString@Trinity@@@std@@@std@@I@Z@4HA
	DD	0ffffffffH
	DD	imagerel ?dtor$3@?0???$_to_strings@I$$$V@String@Trinity@@CAXAEAV?$vector@VString@Trinity@@V?$allocator@VString@Trinity@@@std@@@std@@I@Z@4HA
xdata	ENDS
;	COMDAT CONST
CONST	SEGMENT
$cppxdata$??$_to_strings@I$$$V@String@Trinity@@CAXAEAV?$vector@VString@Trinity@@V?$allocator@VString@Trinity@@@std@@@std@@I@Z DD 019930522H
	DD	04H
	DD	imagerel $stateUnwindMap$??$_to_strings@I$$$V@String@Trinity@@CAXAEAV?$vector@VString@Trinity@@V?$allocator@VString@Trinity@@@std@@@std@@I@Z
	DD	00H
	DD	00H
	DD	05H
	DD	imagerel $ip2state$??$_to_strings@I$$$V@String@Trinity@@CAXAEAV?$vector@VString@Trinity@@V?$allocator@VString@Trinity@@@std@@@std@@I@Z
	DD	020H
	DD	00H
	DD	00H
CONST	ENDS
;	COMDAT xdata
xdata	SEGMENT
$unwind$??$_to_strings@I$$$V@String@Trinity@@CAXAEAV?$vector@VString@Trinity@@V?$allocator@VString@Trinity@@@std@@@std@@I@Z DD 041711H
	DD	0f3417H
	DD	070059209H
	DD	imagerel __CxxFrameHandler3
	DD	imagerel $cppxdata$??$_to_strings@I$$$V@String@Trinity@@CAXAEAV?$vector@VString@Trinity@@V?$allocator@VString@Trinity@@@std@@@std@@I@Z
xdata	ENDS
;	COMDAT xdata
xdata	SEGMENT
$unwind$?dtor$1@?0???$ToString@I@String@Trinity@@SA?AV01@AEBI@Z@4HA DD 020601H
	DD	050023206H
xdata	ENDS
;	COMDAT xdata
xdata	SEGMENT
$ip2state$??$ToString@I@String@Trinity@@SA?AV01@AEBI@Z DD imagerel ??$ToString@I@String@Trinity@@SA?AV01@AEBI@Z
	DD	0ffffffffH
	DD	imagerel ??$ToString@I@String@Trinity@@SA?AV01@AEBI@Z+43
	DD	01H
	DD	imagerel ??$ToString@I@String@Trinity@@SA?AV01@AEBI@Z+62
	DD	02H
	DD	imagerel ??$ToString@I@String@Trinity@@SA?AV01@AEBI@Z+86
	DD	01H
	DD	imagerel ??$ToString@I@String@Trinity@@SA?AV01@AEBI@Z+94
	DD	00H
xdata	ENDS
;	COMDAT xdata
xdata	SEGMENT
$stateUnwindMap$??$ToString@I@String@Trinity@@SA?AV01@AEBI@Z DD 0ffffffffH
	DD	imagerel ?dtor$1@?0???$ToString@I@String@Trinity@@SA?AV01@AEBI@Z@4HA
	DD	00H
	DD	imagerel ?dtor$0@?0???$ToString@I@String@Trinity@@SA?AV01@AEBI@Z@4HA
	DD	01H
	DD	imagerel ?dtor$2@?0???$ToString@I@String@Trinity@@SA?AV01@AEBI@Z@4HA
xdata	ENDS
;	COMDAT CONST
CONST	SEGMENT
$cppxdata$??$ToString@I@String@Trinity@@SA?AV01@AEBI@Z DD 019930522H
	DD	03H
	DD	imagerel $stateUnwindMap$??$ToString@I@String@Trinity@@SA?AV01@AEBI@Z
	DD	00H
	DD	00H
	DD	05H
	DD	imagerel $ip2state$??$ToString@I@String@Trinity@@SA?AV01@AEBI@Z
	DD	028H
	DD	00H
	DD	00H
CONST	ENDS
;	COMDAT xdata
xdata	SEGMENT
$unwind$??$ToString@I@String@Trinity@@SA?AV01@AEBI@Z DD 021311H
	DD	03006920aH
	DD	imagerel __CxxFrameHandler3
	DD	imagerel $cppxdata$??$ToString@I@String@Trinity@@SA?AV01@AEBI@Z
InvalidFileNameChars$initializer$ DQ FLAT:??__EInvalidFileNameChars@Path@IO@Trinity@@YAXXZ
; Function compile flags: /Ogtpy
; File d:\home\src\trinity\projects\trinity.c\src\network\trinitysocketserver.threading.cpp
; File d:\home\src\trinity\projects\trinity.c\src\network\trinitysocketserver.contextobject.cpp
; File d:\home\src\trinity\projects\trinity.c\src\network\trinitysocketserver.threading.cpp
; File d:\home\src\trinity\projects\trinity.c\src\network\trinitysocketserver.recv.cpp
; File d:\home\src\trinity\projects\trinity.c\src\network\trinitysocketserver.contextobject.cpp
; File d:\home\src\trinity\projects\trinity.c\src\network\trinitysocketserver.recv.cpp
; File d:\home\src\trinity\projects\trinity.c\src\network\trinitysocketserver.cpp
; File d:\home\src\trinity\projects\trinity.c\src\network\trinitysocketserver.contextobject.cpp
; File d:\home\src\trinity\projects\trinity.c\src\network\trinitysocketserver.threading.cpp
; File c:\program files (x86)\microsoft visual studio 12.0\vc\include\xstring
; File c:\program files (x86)\microsoft visual studio 12.0\vc\include\iosfwd
; File c:\program files (x86)\microsoft visual studio 12.0\vc\include\xstring
; File d:\home\src\trinity\projects\trinity.lib\trinity\diagnostics\log.h
; File c:\program files (x86)\microsoft visual studio 12.0\vc\include\xstring
; File c:\program files (x86)\microsoft visual studio 12.0\vc\include\xmemory0
; File c:\program files (x86)\microsoft visual studio 12.0\vc\include\xstring
; File c:\program files (x86)\microsoft visual studio 12.0\vc\include\iosfwd
; File c:\program files (x86)\microsoft visual studio 12.0\vc\include\xstring
; File c:\program files (x86)\microsoft visual studio 12.0\vc\include\xmemory0
; File c:\program files (x86)\microsoft visual studio 12.0\vc\include\xstring
; File c:\program files (x86)\microsoft visual studio 12.0\vc\include\iosfwd
; File d:\home\src\trinity\projects\trinity.c\src\network\trinitysocketserver.threading.cpp
; File c:\program files (x86)\microsoft visual studio 12.0\vc\include\xstring
; File c:\program files (x86)\microsoft visual studio 12.0\vc\include\iosfwd
; File c:\program files (x86)\microsoft visual studio 12.0\vc\include\xstring
; File d:\home\src\trinity\projects\trinity.lib\trinity\diagnostics\log.h
; File c:\program files (x86)\microsoft visual studio 12.0\vc\include\xstring
; File c:\program files (x86)\microsoft visual studio 12.0\vc\include\xmemory0
; File c:\program files (x86)\microsoft visual studio 12.0\vc\include\xstring
; File c:\program files (x86)\microsoft visual studio 12.0\vc\include\iosfwd
; File c:\program files (x86)\microsoft visual studio 12.0\vc\include\xstring
; File c:\program files (x86)\microsoft visual studio 12.0\vc\include\xmemory0
; File c:\program files (x86)\microsoft visual studio 12.0\vc\include\xstring
; File c:\program files (x86)\microsoft visual studio 12.0\vc\include\iosfwd
; File d:\home\src\trinity\projects\trinity.c\src\network\trinitysocketserver.cpp
; File d:\home\src\trinity\projects\trinity.c\src\network\trinitysocketserver.threading.cpp
;	COMDAT ?SocketAcceptThreadProc@Network@Trinity@@YAKPEAX@Z
_TEXT	SEGMENT
$T1 = 64
$T2 = 72
$T3 = 72
$T4 = 104
$T5 = 104
lpParameter$ = 192
_linger$6 = 200
flags$7 = 208
bytesRecvd$8 = 216
?SocketAcceptThreadProc@Network@Trinity@@YAKPEAX@Z PROC	; Trinity::Network::SocketAcceptThreadProc, COMDAT

; 106  :         {

$LN278:
	push	rbp
	push	rsi
	push	rdi
	push	r14
	push	r15
	lea	rbp, QWORD PTR [rsp-55]
	sub	rsp, 144				; 00000090H
	mov	QWORD PTR $T1[rbp-89], -2
	mov	QWORD PTR [rsp+192], rbx

; 110  :                 SOCKET acceptSocket = WSAAccept(socket, NULL, NULL, NULL, 0);

	xor	r14d, r14d
	mov	QWORD PTR [rsp+32], r14
	xor	r9d, r9d
	xor	r8d, r8d
	xor	edx, edx
	mov	rcx, QWORD PTR ?socket@Network@Trinity@@3_KA ; Trinity::Network::socket
	call	QWORD PTR __imp_WSAAccept
	mov	rdi, rax

; 111  : 
; 112  :                 if (INVALID_SOCKET == acceptSocket)

	lea	r15d, QWORD PTR [r14+1]
	cmp	rax, -1
	je	$LN273@SocketAcce
$LL4@SocketAcce:
; File d:\home\src\trinity\projects\trinity.c\src\network\trinitysocketserver.contextobject.cpp

; 37   :             PerSocketContextObject* p = (PerSocketContextObject*)malloc(sizeof(PerSocketContextObject));

	mov	ecx, 8256				; 00002040H
	call	malloc
	mov	rbx, rax

; 38   : 
; 39   :             p->wsaBuffer.buf = p->Buffer;

	mov	QWORD PTR [rax+8216], rax

; 40   :             p->wsaBuffer.len = UInt32_Contants::SocketBufferSize;

	mov	DWORD PTR [rax+8208], 8192		; 00002000H

; 41   :             p->socket = socket;

	mov	QWORD PTR [rax+8224], rdi

; 42   : 
; 43   :             p->ReceivedPrefixBytes = 0;

	mov	QWORD PTR [rax+8232], r14

; 44   :             p->ReceivedMessageBodyBytes = 0;

	mov	QWORD PTR [rax+8200], r14

; 45   :             p->RemainingBytesToSend = 0;
; 46   :             p->BytesAlreadySent = 0;
; 47   :             p->Message = NULL;

	mov	QWORD PTR [rax+8192], r14

; 11   :             OverlappedOpStruct* p = (OverlappedOpStruct*)malloc(sizeof(OverlappedOpStruct));

	mov	ecx, 40					; 00000028H
	call	malloc

; 12   :             memset(p, 0, sizeof(WSAOVERLAPPED));

	xor	ecx, ecx
	mov	QWORD PTR [rax], rcx
	mov	QWORD PTR [rax+8], rcx
	mov	QWORD PTR [rax+16], rcx
	mov	QWORD PTR [rax+24], rcx

; 13   :             p->OpType = opType;

	mov	DWORD PTR [rax+32], r15d

; 48   :             p->pOverlapped = AllocateOverlappedOpStruct(SocketAsyncOperation::Receive);

	mov	QWORD PTR [rbx+8240], rax

; 49   :             p->BodyLength = 0;

	mov	DWORD PTR [rbx+8248], r14d
; File d:\home\src\trinity\projects\trinity.c\src\network\trinitysocketserver.threading.cpp

; 121  :                 if (NULL == CreateIoCompletionPort((HANDLE)acceptSocket, hIocp, (ULONG_PTR)pContext, 0))

	xor	r9d, r9d
	mov	r8, rbx
	mov	rdx, QWORD PTR ?hIocp@Network@Trinity@@3PEAXEA ; Trinity::Network::hIocp
	mov	rcx, rdi
	call	QWORD PTR __imp_CreateIoCompletionPort
	test	rax, rax
	je	$LN274@SocketAcce
; File d:\home\src\trinity\projects\trinity.c\src\network\trinitysocketserver.recv.cpp

; 12   :             DWORD flags = 0; // None flag

	mov	DWORD PTR flags$7[rbp-89], r14d

; 13   :             ResetOverlappedStruct(pContext->pOverlapped, SocketAsyncOperation::Receive);

	mov	rax, QWORD PTR [rbx+8240]
; File d:\home\src\trinity\projects\trinity.c\src\network\trinitysocketserver.contextobject.cpp

; 68   :             memset(pOverlapped, 0, sizeof(WSAOVERLAPPED));

	xor	ecx, ecx
	mov	QWORD PTR [rax], rcx
	mov	QWORD PTR [rax+8], rcx
	mov	QWORD PTR [rax+16], rcx
	mov	QWORD PTR [rax+24], rcx

; 69   :             pOverlapped->OpType = opType;

	mov	DWORD PTR [rax+32], r15d
; File d:\home\src\trinity\projects\trinity.c\src\network\trinitysocketserver.recv.cpp

; 14   :             int statusCode = WSARecv(pContext->socket, &(pContext->wsaBuffer), 1, &bytesRecvd, &flags, (LPWSAOVERLAPPED)(pContext->pOverlapped), NULL);

	mov	QWORD PTR [rsp+48], r14
	mov	rax, QWORD PTR [rbx+8240]
	mov	QWORD PTR [rsp+40], rax
	lea	rax, QWORD PTR flags$7[rbp-89]
	mov	QWORD PTR [rsp+32], rax
	lea	r9, QWORD PTR bytesRecvd$8[rbp-89]
	mov	r8d, r15d
	lea	rdx, QWORD PTR [rbx+8208]
	mov	rcx, QWORD PTR [rbx+8224]
	call	QWORD PTR __imp_WSARecv

; 15   : 
; 16   :             if (SOCKET_ERROR == statusCode &&
; 17   :                 WSA_IO_PENDING != WSAGetLastError())

	cmp	eax, -1
	jne	SHORT $LN266@SocketAcce
	call	QWORD PTR __imp_WSAGetLastError
	cmp	eax, 997				; 000003e5H
	je	SHORT $LN266@SocketAcce
; File d:\home\src\trinity\projects\trinity.c\src\network\trinitysocketserver.cpp

; 130  :                 _linger.l_onoff = 1; //The socket will remain open for a specified amount of time.

	mov	DWORD PTR _linger$6[rbp-89], r15d

; 131  :                 _linger.l_linger = 0; //
; 132  :                 setsockopt(pContext->socket, SOL_SOCKET, SO_LINGER, (char*)&_linger, sizeof(_linger));

	mov	DWORD PTR [rsp+32], 4
	lea	r9, QWORD PTR _linger$6[rbp-89]
	mov	edx, 65535				; 0000ffffH
	mov	r8d, 128				; 00000080H
	mov	rcx, QWORD PTR [rbx+8224]
	call	QWORD PTR __imp_setsockopt

; 133  :             }
; 134  : 
; 135  :             // closesocket function implicitly causes a shutdown sequence
; 136  :             closesocket(pContext->socket);

	mov	rcx, QWORD PTR [rbx+8224]
	call	QWORD PTR __imp_closesocket

; 137  :             pContext->socket = INVALID_SOCKET;

	mov	QWORD PTR [rbx+8224], -1
; File d:\home\src\trinity\projects\trinity.c\src\network\trinitysocketserver.contextobject.cpp

; 25   :             FreeOverlappedOpStruct(p->pOverlapped);

	mov	rcx, QWORD PTR [rbx+8240]

; 14   :             return p;
; 15   :         }
; 16   : 
; 17   :         void FreeOverlappedOpStruct(OverlappedOpStruct* p)
; 18   :         {
; 19   :             if (NULL != p)

	test	rcx, rcx
	je	SHORT $LN268@SocketAcce

; 20   :                 free(p);

	call	free
$LN268@SocketAcce:

; 26   : 
; 27   :             if (NULL != p->Message)

	mov	rcx, QWORD PTR [rbx+8192]
	test	rcx, rcx
	je	SHORT $LN265@SocketAcce

; 28   :             {
; 29   :                 free(p->Message);

	call	free
$LN265@SocketAcce:

; 30   :             }
; 31   : 
; 32   :             free(p);

	mov	rcx, rbx
	call	free
$LN266@SocketAcce:
; File d:\home\src\trinity\projects\trinity.c\src\network\trinitysocketserver.threading.cpp

; 110  :                 SOCKET acceptSocket = WSAAccept(socket, NULL, NULL, NULL, 0);

	mov	QWORD PTR [rsp+32], r14
	xor	r9d, r9d
	xor	r8d, r8d
	xor	edx, edx
	mov	rcx, QWORD PTR ?socket@Network@Trinity@@3_KA ; Trinity::Network::socket
	call	QWORD PTR __imp_WSAAccept
	mov	rdi, rax

; 111  : 
; 112  :                 if (INVALID_SOCKET == acceptSocket)

	cmp	rax, -1
	jne	$LL4@SocketAcce
	jmp	$LN273@SocketAcce
$LN274@SocketAcce:
; File c:\program files (x86)\microsoft visual studio 12.0\vc\include\xstring

; 494  : 		_Mysize = 0;

	mov	QWORD PTR $T3[rbp-73], r14
	mov	QWORD PTR $T3[rbp-65], r14
	mov	QWORD PTR $T3[rbp-65], 15

; 2237 : 		_Traits::assign(this->_Myptr()[this->_Mysize = _Newsize], _Elem());

	mov	QWORD PTR $T3[rbp-73], r14
; File c:\program files (x86)\microsoft visual studio 12.0\vc\include\iosfwd

; 564  : 		_Left = _Right;

	mov	BYTE PTR $T3[rbp-89], r14b
; File c:\program files (x86)\microsoft visual studio 12.0\vc\include\xstring

; 1169 : 		return (assign(_Ptr, _Traits::length(_Ptr)));

	mov	r8d, 29
	lea	rdx, OFFSET FLAT:??_C@_0BO@CACNOMAG@Cannot?5create?5worker?5threads?4?$AA@
	lea	rcx, QWORD PTR $T3[rbp-89]
	call	?assign@?$basic_string@DU?$char_traits@D@std@@V?$allocator@D@2@@std@@QEAAAEAV12@PEBD_K@Z ; std::basic_string<char,std::char_traits<char>,std::allocator<char> >::assign
	npad	1
; File d:\home\src\trinity\projects\trinity.lib\trinity\diagnostics\log.h

; 66   :             _writeline_impl(logLevel, String::Format(format, arguments...));

	lea	rdx, QWORD PTR $T3[rbp-89]
	lea	rcx, QWORD PTR $T4[rbp-89]
	call	??$Format@$$$V@String@Trinity@@SA?AV01@AEBV01@@Z ; Trinity::String::Format<>
	npad	1
	mov	rdx, rax
	mov	ecx, r15d
	call	?_writeline_impl@Diagnostics@Trinity@@YAXW4LogLevel@12@AEBVString@2@@Z ; Trinity::Diagnostics::_writeline_impl
	npad	1
; File c:\program files (x86)\microsoft visual studio 12.0\vc\include\xstring

; 2275 : 		else if (this->_BUF_SIZE <= this->_Myres)

	cmp	QWORD PTR $T4[rbp-65], 16
	jb	SHORT $LN208@SocketAcce
; File c:\program files (x86)\microsoft visual studio 12.0\vc\include\xmemory0

; 573  : 		::operator delete(_Ptr);

	mov	rcx, QWORD PTR $T4[rbp-89]
	call	??3@YAXPEAX@Z				; operator delete
$LN208@SocketAcce:
	mov	QWORD PTR $T4[rbp-65], 15
; File c:\program files (x86)\microsoft visual studio 12.0\vc\include\xstring

; 2237 : 		_Traits::assign(this->_Myptr()[this->_Mysize = _Newsize], _Elem());

	mov	QWORD PTR $T4[rbp-73], r14
; File c:\program files (x86)\microsoft visual studio 12.0\vc\include\iosfwd

; 564  : 		_Left = _Right;

	mov	BYTE PTR $T4[rbp-89], 0
; File c:\program files (x86)\microsoft visual studio 12.0\vc\include\xstring

; 2275 : 		else if (this->_BUF_SIZE <= this->_Myres)

	cmp	QWORD PTR $T3[rbp-65], 16
	jb	SHORT $LN243@SocketAcce
; File c:\program files (x86)\microsoft visual studio 12.0\vc\include\xmemory0

; 573  : 		::operator delete(_Ptr);

	mov	rcx, QWORD PTR $T3[rbp-89]
	call	??3@YAXPEAX@Z				; operator delete
$LN243@SocketAcce:
	mov	QWORD PTR $T3[rbp-65], 15
; File c:\program files (x86)\microsoft visual studio 12.0\vc\include\xstring

; 2237 : 		_Traits::assign(this->_Myptr()[this->_Mysize = _Newsize], _Elem());

	mov	QWORD PTR $T3[rbp-73], r14
; File c:\program files (x86)\microsoft visual studio 12.0\vc\include\iosfwd

; 564  : 		_Left = _Right;

	mov	BYTE PTR $T3[rbp-89], 0
; File d:\home\src\trinity\projects\trinity.c\src\network\trinitysocketserver.threading.cpp

; 124  :                     return CleanUp();

	jmp	$LN277@SocketAcce
$LN273@SocketAcce:
; File c:\program files (x86)\microsoft visual studio 12.0\vc\include\xstring

; 494  : 		_Mysize = 0;

	mov	QWORD PTR $T5[rbp-73], r14
	mov	QWORD PTR $T5[rbp-65], r14
	mov	QWORD PTR $T5[rbp-65], 15

; 2237 : 		_Traits::assign(this->_Myptr()[this->_Mysize = _Newsize], _Elem());

	mov	QWORD PTR $T5[rbp-73], r14
; File c:\program files (x86)\microsoft visual studio 12.0\vc\include\iosfwd

; 564  : 		_Left = _Right;

	mov	BYTE PTR $T5[rbp-89], r14b
; File c:\program files (x86)\microsoft visual studio 12.0\vc\include\xstring

; 1169 : 		return (assign(_Ptr, _Traits::length(_Ptr)));

	mov	r8d, 28
	lea	rdx, OFFSET FLAT:??_C@_0BN@KEEEJJFD@Cannot?5create?5accept?5socket?4?$AA@
	lea	rcx, QWORD PTR $T5[rbp-89]
	call	?assign@?$basic_string@DU?$char_traits@D@std@@V?$allocator@D@2@@std@@QEAAAEAV12@PEBD_K@Z ; std::basic_string<char,std::char_traits<char>,std::allocator<char> >::assign
	npad	1
; File d:\home\src\trinity\projects\trinity.lib\trinity\diagnostics\log.h

; 66   :             _writeline_impl(logLevel, String::Format(format, arguments...));

	lea	rdx, QWORD PTR $T5[rbp-89]
	lea	rcx, QWORD PTR $T2[rbp-89]
	call	??$Format@$$$V@String@Trinity@@SA?AV01@AEBV01@@Z ; Trinity::String::Format<>
	npad	1
	mov	rdx, rax
	mov	ecx, r15d
	call	?_writeline_impl@Diagnostics@Trinity@@YAXW4LogLevel@12@AEBVString@2@@Z ; Trinity::Diagnostics::_writeline_impl
	npad	1
; File c:\program files (x86)\microsoft visual studio 12.0\vc\include\xstring

; 2275 : 		else if (this->_BUF_SIZE <= this->_Myres)

	cmp	QWORD PTR $T2[rbp-65], 16
	jb	SHORT $LN82@SocketAcce
; File c:\program files (x86)\microsoft visual studio 12.0\vc\include\xmemory0

; 573  : 		::operator delete(_Ptr);

	mov	rcx, QWORD PTR $T2[rbp-89]
	call	??3@YAXPEAX@Z				; operator delete
$LN82@SocketAcce:
	mov	QWORD PTR $T2[rbp-65], 15
; File c:\program files (x86)\microsoft visual studio 12.0\vc\include\xstring

; 2237 : 		_Traits::assign(this->_Myptr()[this->_Mysize = _Newsize], _Elem());

	mov	QWORD PTR $T2[rbp-73], r14
; File c:\program files (x86)\microsoft visual studio 12.0\vc\include\iosfwd

; 564  : 		_Left = _Right;

	mov	BYTE PTR $T2[rbp-89], 0
; File c:\program files (x86)\microsoft visual studio 12.0\vc\include\xstring

; 2275 : 		else if (this->_BUF_SIZE <= this->_Myres)

	cmp	QWORD PTR $T5[rbp-65], 16
	jb	SHORT $LN117@SocketAcce
; File c:\program files (x86)\microsoft visual studio 12.0\vc\include\xmemory0

; 573  : 		::operator delete(_Ptr);

	mov	rcx, QWORD PTR $T5[rbp-89]
	call	??3@YAXPEAX@Z				; operator delete
$LN117@SocketAcce:
	mov	QWORD PTR $T5[rbp-65], 15
; File c:\program files (x86)\microsoft visual studio 12.0\vc\include\xstring

; 2237 : 		_Traits::assign(this->_Myptr()[this->_Mysize = _Newsize], _Elem());

	mov	QWORD PTR $T5[rbp-73], r14
; File c:\program files (x86)\microsoft visual studio 12.0\vc\include\iosfwd

; 564  : 		_Left = _Right;

	mov	BYTE PTR $T5[rbp-89], 0
$LN277@SocketAcce:
; File d:\home\src\trinity\projects\trinity.c\src\network\trinitysocketserver.cpp

; 106  :             closesocket(socket);

	mov	rcx, QWORD PTR ?socket@Network@Trinity@@3_KA ; Trinity::Network::socket
	call	QWORD PTR __imp_closesocket

; 107  :             WSACleanup();

	call	QWORD PTR __imp_WSACleanup
; File d:\home\src\trinity\projects\trinity.c\src\network\trinitysocketserver.threading.cpp

; 115  :                     return CleanUp();

	mov	eax, r15d

; 125  :                 }
; 126  : 
; 127  :                 // post the first async receive
; 128  :                 ReceiveAsync(pContext);
; 129  :             }
; 130  :         }

	mov	rbx, QWORD PTR [rsp+192]
	add	rsp, 144				; 00000090H
	pop	r15
	pop	r14
	pop	rdi
	pop	rsi
	pop	rbp
	ret	0
?SocketAcceptThreadProc@Network@Trinity@@YAKPEAX@Z ENDP	; Trinity::Network::SocketAcceptThreadProc
_TEXT	ENDS
; Function compile flags: /Ogtpy
;	COMDAT text$x
text$x	SEGMENT
$T1 = 64
$T2 = 72
$T3 = 72
$T4 = 104
$T5 = 104
lpParameter$ = 192
_linger$6 = 200
flags$7 = 208
bytesRecvd$8 = 216
?dtor$2@?0??SocketAcceptThreadProc@Network@Trinity@@YAKPEAX@Z@4HA PROC ; `Trinity::Network::SocketAcceptThreadProc'::`1'::dtor$2
	lea	rcx, QWORD PTR $T5[rdx]
	jmp	??1?$basic_string@DU?$char_traits@D@std@@V?$allocator@D@2@@std@@QEAA@XZ ; std::basic_string<char,std::char_traits<char>,std::allocator<char> >::~basic_string<char,std::char_traits<char>,std::allocator<char> >
?dtor$2@?0??SocketAcceptThreadProc@Network@Trinity@@YAKPEAX@Z@4HA ENDP ; `Trinity::Network::SocketAcceptThreadProc'::`1'::dtor$2
text$x	ENDS
; Function compile flags: /Ogtpy
;	COMDAT text$x
text$x	SEGMENT
$T1 = 64
$T2 = 72
$T3 = 72
$T4 = 104
$T5 = 104
lpParameter$ = 192
_linger$6 = 200
flags$7 = 208
bytesRecvd$8 = 216
?dtor$0@?0??SocketAcceptThreadProc@Network@Trinity@@YAKPEAX@Z@4HA PROC ; `Trinity::Network::SocketAcceptThreadProc'::`1'::dtor$0
	lea	rcx, QWORD PTR $T5[rdx]
	jmp	??1String@Trinity@@QEAA@XZ		; Trinity::String::~String
?dtor$0@?0??SocketAcceptThreadProc@Network@Trinity@@YAKPEAX@Z@4HA ENDP ; `Trinity::Network::SocketAcceptThreadProc'::`1'::dtor$0
text$x	ENDS
; Function compile flags: /Ogtpy
;	COMDAT text$x
text$x	SEGMENT
$T1 = 64
$T2 = 72
$T3 = 72
$T4 = 104
$T5 = 104
lpParameter$ = 192
_linger$6 = 200
flags$7 = 208
bytesRecvd$8 = 216
?dtor$3@?0??SocketAcceptThreadProc@Network@Trinity@@YAKPEAX@Z@4HA PROC ; `Trinity::Network::SocketAcceptThreadProc'::`1'::dtor$3
	lea	rcx, QWORD PTR $T2[rdx]
	jmp	??1String@Trinity@@QEAA@XZ		; Trinity::String::~String
?dtor$3@?0??SocketAcceptThreadProc@Network@Trinity@@YAKPEAX@Z@4HA ENDP ; `Trinity::Network::SocketAcceptThreadProc'::`1'::dtor$3
text$x	ENDS
; Function compile flags: /Ogtpy
;	COMDAT text$x
text$x	SEGMENT
$T1 = 64
$T2 = 72
$T3 = 72
$T4 = 104
$T5 = 104
lpParameter$ = 192
_linger$6 = 200
flags$7 = 208
bytesRecvd$8 = 216
?dtor$4@?0??SocketAcceptThreadProc@Network@Trinity@@YAKPEAX@Z@4HA PROC ; `Trinity::Network::SocketAcceptThreadProc'::`1'::dtor$4
	lea	rcx, QWORD PTR $T2[rdx]
	jmp	??1?$basic_string@DU?$char_traits@D@std@@V?$allocator@D@2@@std@@QEAA@XZ ; std::basic_string<char,std::char_traits<char>,std::allocator<char> >::~basic_string<char,std::char_traits<char>,std::allocator<char> >
?dtor$4@?0??SocketAcceptThreadProc@Network@Trinity@@YAKPEAX@Z@4HA ENDP ; `Trinity::Network::SocketAcceptThreadProc'::`1'::dtor$4
text$x	ENDS
; Function compile flags: /Ogtpy
;	COMDAT text$x
text$x	SEGMENT
$T1 = 64
$T2 = 72
$T3 = 72
$T4 = 104
$T5 = 104
lpParameter$ = 192
_linger$6 = 200
flags$7 = 208
bytesRecvd$8 = 216
?dtor$5@?0??SocketAcceptThreadProc@Network@Trinity@@YAKPEAX@Z@4HA PROC ; `Trinity::Network::SocketAcceptThreadProc'::`1'::dtor$5
	lea	rcx, QWORD PTR $T5[rdx]
	jmp	??1?$basic_string@DU?$char_traits@D@std@@V?$allocator@D@2@@std@@QEAA@XZ ; std::basic_string<char,std::char_traits<char>,std::allocator<char> >::~basic_string<char,std::char_traits<char>,std::allocator<char> >
?dtor$5@?0??SocketAcceptThreadProc@Network@Trinity@@YAKPEAX@Z@4HA ENDP ; `Trinity::Network::SocketAcceptThreadProc'::`1'::dtor$5
text$x	ENDS
; Function compile flags: /Ogtpy
;	COMDAT text$x
text$x	SEGMENT
$T1 = 64
$T2 = 72
$T3 = 72
$T4 = 104
$T5 = 104
lpParameter$ = 192
_linger$6 = 200
flags$7 = 208
bytesRecvd$8 = 216
?dtor$6@?0??SocketAcceptThreadProc@Network@Trinity@@YAKPEAX@Z@4HA PROC ; `Trinity::Network::SocketAcceptThreadProc'::`1'::dtor$6
	lea	rcx, QWORD PTR $T3[rdx]
	jmp	??1?$basic_string@DU?$char_traits@D@std@@V?$allocator@D@2@@std@@QEAA@XZ ; std::basic_string<char,std::char_traits<char>,std::allocator<char> >::~basic_string<char,std::char_traits<char>,std::allocator<char> >
?dtor$6@?0??SocketAcceptThreadProc@Network@Trinity@@YAKPEAX@Z@4HA ENDP ; `Trinity::Network::SocketAcceptThreadProc'::`1'::dtor$6
text$x	ENDS
; Function compile flags: /Ogtpy
;	COMDAT text$x
text$x	SEGMENT
$T1 = 64
$T2 = 72
$T3 = 72
$T4 = 104
$T5 = 104
lpParameter$ = 192
_linger$6 = 200
flags$7 = 208
bytesRecvd$8 = 216
?dtor$1@?0??SocketAcceptThreadProc@Network@Trinity@@YAKPEAX@Z@4HA PROC ; `Trinity::Network::SocketAcceptThreadProc'::`1'::dtor$1
	lea	rcx, QWORD PTR $T3[rdx]
	jmp	??1String@Trinity@@QEAA@XZ		; Trinity::String::~String
?dtor$1@?0??SocketAcceptThreadProc@Network@Trinity@@YAKPEAX@Z@4HA ENDP ; `Trinity::Network::SocketAcceptThreadProc'::`1'::dtor$1
text$x	ENDS
; Function compile flags: /Ogtpy
;	COMDAT text$x
text$x	SEGMENT
$T1 = 64
$T2 = 72
$T3 = 72
$T4 = 104
$T5 = 104
lpParameter$ = 192
_linger$6 = 200
flags$7 = 208
bytesRecvd$8 = 216
?dtor$7@?0??SocketAcceptThreadProc@Network@Trinity@@YAKPEAX@Z@4HA PROC ; `Trinity::Network::SocketAcceptThreadProc'::`1'::dtor$7
	lea	rcx, QWORD PTR $T4[rdx]
	jmp	??1String@Trinity@@QEAA@XZ		; Trinity::String::~String
?dtor$7@?0??SocketAcceptThreadProc@Network@Trinity@@YAKPEAX@Z@4HA ENDP ; `Trinity::Network::SocketAcceptThreadProc'::`1'::dtor$7
text$x	ENDS
; Function compile flags: /Ogtpy
;	COMDAT text$x
text$x	SEGMENT
$T1 = 64
$T2 = 72
$T3 = 72
$T4 = 104
$T5 = 104
lpParameter$ = 192
_linger$6 = 200
flags$7 = 208
bytesRecvd$8 = 216
?dtor$8@?0??SocketAcceptThreadProc@Network@Trinity@@YAKPEAX@Z@4HA PROC ; `Trinity::Network::SocketAcceptThreadProc'::`1'::dtor$8
	lea	rcx, QWORD PTR $T4[rdx]
	jmp	??1?$basic_string@DU?$char_traits@D@std@@V?$allocator@D@2@@std@@QEAA@XZ ; std::basic_string<char,std::char_traits<char>,std::allocator<char> >::~basic_string<char,std::char_traits<char>,std::allocator<char> >
?dtor$8@?0??SocketAcceptThreadProc@Network@Trinity@@YAKPEAX@Z@4HA ENDP ; `Trinity::Network::SocketAcceptThreadProc'::`1'::dtor$8
text$x	ENDS
; Function compile flags: /Ogtpy
;	COMDAT text$x
text$x	SEGMENT
$T1 = 64
$T2 = 72
$T3 = 72
$T4 = 104
$T5 = 104
lpParameter$ = 192
_linger$6 = 200
flags$7 = 208
bytesRecvd$8 = 216
?dtor$9@?0??SocketAcceptThreadProc@Network@Trinity@@YAKPEAX@Z@4HA PROC ; `Trinity::Network::SocketAcceptThreadProc'::`1'::dtor$9
	lea	rcx, QWORD PTR $T3[rdx]
	jmp	??1?$basic_string@DU?$char_traits@D@std@@V?$allocator@D@2@@std@@QEAA@XZ ; std::basic_string<char,std::char_traits<char>,std::allocator<char> >::~basic_string<char,std::char_traits<char>,std::allocator<char> >
?dtor$9@?0??SocketAcceptThreadProc@Network@Trinity@@YAKPEAX@Z@4HA ENDP ; `Trinity::Network::SocketAcceptThreadProc'::`1'::dtor$9
text$x	ENDS
; Function compile flags: /Ogtpy
; File c:\program files (x86)\microsoft visual studio 12.0\vc\include\string
; File c:\program files (x86)\microsoft visual studio 12.0\vc\include\xstring
; File c:\program files (x86)\microsoft visual studio 12.0\vc\include\iosfwd
; File c:\program files (x86)\microsoft visual studio 12.0\vc\include\xstring
; File c:\program files (x86)\microsoft visual studio 12.0\vc\include\string
;	COMDAT ?to_string@std@@YA?AV?$basic_string@DU?$char_traits@D@std@@V?$allocator@D@2@@1@I@Z
_TEXT	SEGMENT
$T1 = 32
_Buf$ = 48
__$ReturnUdt$ = 128
_Val$ = 136
?to_string@std@@YA?AV?$basic_string@DU?$char_traits@D@std@@V?$allocator@D@2@@1@I@Z PROC ; std::to_string, COMDAT

; 509  : 	{	// convert unsigned int to string

$LN50:
	mov	rax, rsp
	mov	QWORD PTR [rax+8], rcx
	push	rdi
	sub	rsp, 112				; 00000070H
	mov	QWORD PTR [rax-80], -2
	mov	QWORD PTR [rax+16], rbx
	mov	rdi, rcx
	xor	ebx, ebx
	mov	DWORD PTR [rax-88], ebx

; 510  : 	char _Buf[2 * _MAX_INT_DIG];
; 511  : 
; 512  : 	_CSTD _TOSTRING(_Buf, "%u", _Val);

	mov	r9d, edx
	lea	r8, OFFSET FLAT:??_C@_02GMHACPFF@?$CFu?$AA@
	lea	edx, QWORD PTR [rbx+64]
	lea	rcx, QWORD PTR [rax-72]
	call	sprintf_s
; File c:\program files (x86)\microsoft visual studio 12.0\vc\include\xstring

; 2284 : 		this->_Myres = this->_BUF_SIZE - 1;

	mov	QWORD PTR [rdi+24], 15

; 1170 : 		}
; 1171 : 
; 1172 : 	_Myt& assign(size_type _Count, _Elem _Ch)
; 1173 : 		{	// assign _Count * _Ch
; 1174 : 		if (_Count == npos)
; 1175 : 			_Xlen();	// result too long
; 1176 : 
; 1177 : 		if (_Grow(_Count))
; 1178 : 			{	// make room and assign new stuff
; 1179 : 			_Chassign(0, _Count, _Ch);
; 1180 : 			_Eos(_Count);
; 1181 : 			}
; 1182 : 		return (*this);
; 1183 : 		}
; 1184 : 
; 1185 : 	template<class _Iter>
; 1186 : 		typename enable_if<_Is_iterator<_Iter>::value,
; 1187 : 			_Myt&>::type
; 1188 : 		assign(_Iter _First, _Iter _Last)
; 1189 : 		{	// assign [_First, _Last), input iterators
; 1190 : 		return (replace(begin(), end(), _First, _Last));
; 1191 : 		}
; 1192 : 
; 1193 : 	_Myt& assign(const_pointer _First, const_pointer _Last)
; 1194 : 		{	// assign [_First, _Last), const pointers
; 1195 : 		return (replace(begin(), end(), _First, _Last));
; 1196 : 		}
; 1197 : 
; 1198 : 	_Myt& assign(const_iterator _First, const_iterator _Last)
; 1199 : 		{	// assign [_First, _Last), const_iterators
; 1200 : 		return (replace(begin(), end(), _First, _Last));
; 1201 : 		}
; 1202 : 
; 1203 : 	_Myt& insert(size_type _Off, const _Myt& _Right)
; 1204 : 		{	// insert _Right at _Off
; 1205 : 		return (insert(_Off, _Right, 0, npos));
; 1206 : 		}
; 1207 : 
; 1208 : 	_Myt& insert(size_type _Off,
; 1209 : 		const _Myt& _Right, size_type _Roff, size_type _Count)
; 1210 : 		{	// insert _Right [_Roff, _Roff + _Count) at _Off
; 1211 : 		if (this->_Mysize < _Off || _Right.size() < _Roff)
; 1212 : 			_Xran();	// _Off or _Roff off end
; 1213 : 		size_type _Num = _Right.size() - _Roff;
; 1214 : 		if (_Num < _Count)
; 1215 : 			_Count = _Num;	// trim _Count to size
; 1216 : 		if (npos - this->_Mysize <= _Count)
; 1217 : 			_Xlen();	// result too long
; 1218 : 
; 1219 : 		if (0 < _Count && _Grow(_Num = this->_Mysize + _Count))
; 1220 : 			{	// make room and insert new stuff
; 1221 : 			_Traits::move(this->_Myptr() + _Off + _Count,
; 1222 : 				this->_Myptr() + _Off,
; 1223 : 				this->_Mysize - _Off);	// empty out hole
; 1224 : 			if (this == &_Right)
; 1225 : 				_Traits::move(this->_Myptr() + _Off,
; 1226 : 					this->_Myptr() + (_Off < _Roff ? _Roff + _Count : _Roff),
; 1227 : 						_Count);	// substring
; 1228 : 			else
; 1229 : 				_Traits::copy(this->_Myptr() + _Off,
; 1230 : 					_Right._Myptr() + _Roff, _Count);	// fill hole
; 1231 : 			_Eos(_Num);
; 1232 : 			}
; 1233 : 		return (*this);
; 1234 : 		}
; 1235 : 
; 1236 : 	_Myt& insert(size_type _Off,
; 1237 : 		const _Elem *_Ptr, size_type _Count)
; 1238 : 		{	// insert [_Ptr, _Ptr + _Count) at _Off
; 1239 :  #if _ITERATOR_DEBUG_LEVEL == 2
; 1240 : 		if (_Count != 0)
; 1241 : 			_DEBUG_POINTER(_Ptr);
; 1242 :  #endif /* _ITERATOR_DEBUG_LEVEL == 2 */
; 1243 : 
; 1244 : 		if (_Inside(_Ptr))
; 1245 : 			return (insert(_Off, *this,
; 1246 : 				_Ptr - this->_Myptr(), _Count));	// substring
; 1247 : 		if (this->_Mysize < _Off)
; 1248 : 			_Xran();	// _Off off end
; 1249 : 		if (npos - this->_Mysize <= _Count)
; 1250 : 			_Xlen();	// result too long
; 1251 : 		size_type _Num;
; 1252 : 		if (0 < _Count && _Grow(_Num = this->_Mysize + _Count))
; 1253 : 			{	// make room and insert new stuff
; 1254 : 			_Traits::move(this->_Myptr() + _Off + _Count,
; 1255 : 				this->_Myptr() + _Off,
; 1256 : 				this->_Mysize - _Off);	// empty out hole
; 1257 : 			_Traits::copy(this->_Myptr() + _Off, _Ptr, _Count);	// fill hole
; 1258 : 			_Eos(_Num);
; 1259 : 			}
; 1260 : 		return (*this);
; 1261 : 		}
; 1262 : 
; 1263 : 	_Myt& insert(size_type _Off, const _Elem *_Ptr)
; 1264 : 		{	// insert [_Ptr, <null>) at _Off
; 1265 : 		_DEBUG_POINTER(_Ptr);
; 1266 : 		return (insert(_Off, _Ptr, _Traits::length(_Ptr)));
; 1267 : 		}
; 1268 : 
; 1269 : 	_Myt& insert(size_type _Off,
; 1270 : 		size_type _Count, _Elem _Ch)
; 1271 : 		{	// insert _Count * _Ch at _Off
; 1272 : 		if (this->_Mysize < _Off)
; 1273 : 			_Xran();	// _Off off end
; 1274 : 		if (npos - this->_Mysize <= _Count)
; 1275 : 			_Xlen();	// result too long
; 1276 : 		size_type _Num;
; 1277 : 		if (0 < _Count && _Grow(_Num = this->_Mysize + _Count))
; 1278 : 			{	// make room and insert new stuff
; 1279 : 			_Traits::move(this->_Myptr() + _Off + _Count,
; 1280 : 				this->_Myptr() + _Off,
; 1281 : 				this->_Mysize - _Off);	// empty out hole
; 1282 : 			_Chassign(_Off, _Count, _Ch);	// fill hole
; 1283 : 			_Eos(_Num);
; 1284 : 			}
; 1285 : 		return (*this);
; 1286 : 		}
; 1287 : 
; 1288 : 	iterator insert(const_iterator _Where)
; 1289 : 		{	// insert <null> at _Where
; 1290 : 		return (insert(_Where, _Elem()));
; 1291 : 		}
; 1292 : 
; 1293 : 	iterator insert(const_iterator _Where, _Elem _Ch)
; 1294 : 		{	// insert _Ch at _Where
; 1295 : 		size_type _Off = _Pdif(_Where, begin());
; 1296 : 		insert(_Off, 1, _Ch);
; 1297 : 		return (begin() + _Off);
; 1298 : 		}
; 1299 : 
; 1300 : 	iterator insert(const_iterator _Where, size_type _Count, _Elem _Ch)
; 1301 : 		{	// insert _Count * _Elem at _Where
; 1302 : 		size_type _Off = _Pdif(_Where, begin());
; 1303 : 		insert(_Off, _Count, _Ch);
; 1304 : 		return (begin() + _Off);
; 1305 : 		}
; 1306 : 
; 1307 : 	template<class _Iter>
; 1308 : 		typename enable_if<_Is_iterator<_Iter>::value,
; 1309 : 			iterator>::type
; 1310 : 		insert(const_iterator _Where, _Iter _First, _Iter _Last)
; 1311 : 		{	// insert [_First, _Last) at _Where, input iterators
; 1312 : 		size_type _Off = _Pdif(_Where, begin());
; 1313 : 		replace(_Where, _Where, _First, _Last);
; 1314 : 		return (begin() + _Off);
; 1315 : 		}
; 1316 : 
; 1317 : 	iterator insert(const_iterator _Where,
; 1318 : 		const_pointer _First, const_pointer _Last)
; 1319 : 		{	// insert [_First, _Last) at _Where, const pointers
; 1320 : 		size_type _Off = _Pdif(_Where, begin());
; 1321 : 		replace(_Where, _Where, _First, _Last);
; 1322 : 		return (begin() + _Off);
; 1323 : 		}
; 1324 : 
; 1325 : 	iterator insert(const_iterator _Where,
; 1326 : 		const_iterator _First, const_iterator _Last)
; 1327 : 		{	// insert [_First, _Last) at _Where, const_iterators
; 1328 : 		size_type _Off = _Pdif(_Where, begin());
; 1329 : 		replace(_Where, _Where, _First, _Last);
; 1330 : 		return (begin() + _Off);
; 1331 : 		}
; 1332 : 
; 1333 : 	_Myt& erase(size_type _Off = 0)
; 1334 : 		{	// erase elements [_Off, ...)
; 1335 : 		if (this->_Mysize < _Off)
; 1336 : 			_Xran();	// _Off off end
; 1337 : 		_Eos(_Off);
; 1338 : 		return (*this);
; 1339 : 		}
; 1340 : 
; 1341 : 	_Myt& erase(size_type _Off, size_type _Count)
; 1342 : 		{	// erase elements [_Off, _Off + _Count)
; 1343 : 		if (this->_Mysize < _Off)
; 1344 : 			_Xran();	// _Off off end
; 1345 : 		if (this->_Mysize - _Off <= _Count)
; 1346 : 			_Eos(_Off);	// erase elements [_Off, ...)
; 1347 : 		else if (0 < _Count)
; 1348 : 			{	// move elements down
; 1349 : 			value_type *_Ptr = this->_Myptr() + _Off;
; 1350 : 			size_type _Newsize = this->_Mysize - _Count;
; 1351 : 			_Traits::move(_Ptr, _Ptr + _Count, _Newsize - _Off);
; 1352 : 			_Eos(_Newsize);
; 1353 : 			}
; 1354 : 		return (*this);
; 1355 : 		}
; 1356 : 
; 1357 : 	iterator erase(const_iterator _Where)
; 1358 : 		{	// erase element at _Where
; 1359 : 		size_type _Count = _Pdif(_Where, begin());
; 1360 : 		erase(_Count, 1);
; 1361 : 		return (_STRING_ITERATOR(this->_Myptr() + _Count));
; 1362 : 		}
; 1363 : 
; 1364 : 	iterator erase(const_iterator _First, const_iterator _Last)
; 1365 : 		{	// erase substring [_First, _Last)
; 1366 : 		_DEBUG_RANGE(_First, _Last);
; 1367 : 		size_type _Count = _Pdif(_First, begin());
; 1368 : 		erase(_Count, _Pdif(_Last, _First));
; 1369 : 		return (_STRING_ITERATOR(this->_Myptr() + _Count));
; 1370 : 		}
; 1371 : 
; 1372 : 	void clear() _NOEXCEPT
; 1373 : 		{	// erase all
; 1374 : 		_Eos(0);
; 1375 : 		}
; 1376 : 
; 1377 : 	_Myt& replace(size_type _Off, size_type _N0, const _Myt& _Right)
; 1378 : 		{	// replace [_Off, _Off + _N0) with _Right
; 1379 : 		return (replace(_Off, _N0, _Right, 0, npos));
; 1380 : 		}
; 1381 : 
; 1382 : 	_Myt& replace(size_type _Off,
; 1383 : 		size_type _N0, const _Myt& _Right, size_type _Roff, size_type _Count)
; 1384 : 		{	// replace [_Off, _Off + _N0) with _Right [_Roff, _Roff + _Count)
; 1385 : 		if (this->_Mysize < _Off || _Right.size() < _Roff)
; 1386 : 			_Xran();	// _Off or _Roff off end
; 1387 : 		if (this->_Mysize - _Off < _N0)
; 1388 : 			_N0 = this->_Mysize - _Off;	// trim _N0 to size
; 1389 : 		size_type _Num = _Right.size() - _Roff;
; 1390 : 		if (_Num < _Count)
; 1391 : 			_Count = _Num;	// trim _Count to size
; 1392 : 		if (npos - _Count <= this->_Mysize - _N0)
; 1393 : 			_Xlen();	// result too long
; 1394 : 
; 1395 : 		size_type _Nm = this->_Mysize - _N0 - _Off;	// length of kept tail
; 1396 : 		size_type _Newsize = this->_Mysize + _Count - _N0;
; 1397 : 		if (this->_Mysize < _Newsize)
; 1398 : 			_Grow(_Newsize);
; 1399 : 
; 1400 : 		if (this != &_Right)
; 1401 : 			{	// no overlap, just move down and copy in new stuff
; 1402 : 			_Traits::move(this->_Myptr() + _Off + _Count,
; 1403 : 				this->_Myptr() + _Off + _N0, _Nm);	// empty hole
; 1404 : 			_Traits::copy(this->_Myptr() + _Off,
; 1405 : 				_Right._Myptr() + _Roff, _Count);	// fill hole
; 1406 : 			}
; 1407 : 		else if (_Count <= _N0)
; 1408 : 			{	// hole doesn't get larger, just copy in substring
; 1409 : 			_Traits::move(this->_Myptr() + _Off,
; 1410 : 				this->_Myptr() + _Roff, _Count);	// fill hole
; 1411 : 			_Traits::move(this->_Myptr() + _Off + _Count,
; 1412 : 				this->_Myptr() + _Off + _N0, _Nm);	// move tail down
; 1413 : 			}
; 1414 : 		else if (_Roff <= _Off)
; 1415 : 			{	// hole gets larger, substring begins before hole
; 1416 : 			_Traits::move(this->_Myptr() + _Off + _Count,
; 1417 : 				this->_Myptr() + _Off + _N0, _Nm);	// move tail down
; 1418 : 			_Traits::move(this->_Myptr() + _Off,
; 1419 : 				this->_Myptr() + _Roff, _Count);	// fill hole
; 1420 : 			}
; 1421 : 		else if (_Off + _N0 <= _Roff)
; 1422 : 			{	// hole gets larger, substring begins after hole
; 1423 : 			_Traits::move(this->_Myptr() + _Off + _Count,
; 1424 : 				this->_Myptr() + _Off + _N0, _Nm);	// move tail down
; 1425 : 			_Traits::move(this->_Myptr() + _Off,
; 1426 : 				this->_Myptr() + (_Roff + _Count - _N0),
; 1427 : 				_Count);	// fill hole
; 1428 : 			}
; 1429 : 		else
; 1430 : 			{	// hole gets larger, substring begins in hole
; 1431 : 			_Traits::move(this->_Myptr() + _Off,
; 1432 : 				this->_Myptr() + _Roff, _N0);	// fill old hole
; 1433 : 			_Traits::move(this->_Myptr() + _Off + _Count,
; 1434 : 				this->_Myptr() + _Off + _N0, _Nm);	// move tail down
; 1435 : 			_Traits::move(this->_Myptr() + _Off + _N0,
; 1436 : 				this->_Myptr() + _Roff + _Count,
; 1437 : 				_Count - _N0);	// fill rest of new hole
; 1438 : 			}
; 1439 : 
; 1440 : 		_Eos(_Newsize);
; 1441 : 		return (*this);
; 1442 : 		}
; 1443 : 
; 1444 : 	_Myt& replace(size_type _Off,
; 1445 : 		size_type _N0, const _Elem *_Ptr, size_type _Count)
; 1446 : 		{	// replace [_Off, _Off + _N0) with [_Ptr, _Ptr + _Count)
; 1447 :  #if _ITERATOR_DEBUG_LEVEL == 2
; 1448 : 		if (_Count != 0)
; 1449 : 			_DEBUG_POINTER(_Ptr);
; 1450 :  #endif /* _ITERATOR_DEBUG_LEVEL == 2 */
; 1451 : 
; 1452 : 		if (_Inside(_Ptr))
; 1453 : 			return (replace(_Off, _N0, *this,
; 1454 : 				_Ptr - this->_Myptr(),
; 1455 : 				_Count));	// substring, replace carefully
; 1456 : 		if (this->_Mysize < _Off)
; 1457 : 			_Xran();	// _Off off end
; 1458 : 		if (this->_Mysize - _Off < _N0)
; 1459 : 			_N0 = this->_Mysize - _Off;	// trim _N0 to size
; 1460 : 		if (npos - _Count <= this->_Mysize - _N0)
; 1461 : 			_Xlen();	// result too long
; 1462 : 		size_type _Nm = this->_Mysize - _N0 - _Off;
; 1463 : 
; 1464 : 		if (_Count < _N0)
; 1465 : 			_Traits::move(this->_Myptr() + _Off + _Count,
; 1466 : 				this->_Myptr() + _Off + _N0,
; 1467 : 				_Nm);	// smaller hole, move tail up
; 1468 : 		size_type _Num;
; 1469 : 		if ((0 < _Count || 0 < _N0)
; 1470 : 			&& _Grow(_Num = this->_Mysize + _Count - _N0))
; 1471 : 			{	// make room and rearrange
; 1472 : 			if (_N0 < _Count)
; 1473 : 				_Traits::move(this->_Myptr() + _Off + _Count,
; 1474 : 					this->_Myptr() + _Off + _N0, _Nm);	// move tail down
; 1475 : 			_Traits::copy(this->_Myptr() + _Off, _Ptr, _Count);	// fill hole
; 1476 : 			_Eos(_Num);
; 1477 : 			}
; 1478 : 		return (*this);
; 1479 : 		}
; 1480 : 
; 1481 : 	_Myt& replace(size_type _Off, size_type _N0, const _Elem *_Ptr)
; 1482 : 		{	// replace [_Off, _Off + _N0) with [_Ptr, <null>)
; 1483 : 		_DEBUG_POINTER(_Ptr);
; 1484 : 		return (replace(_Off, _N0, _Ptr, _Traits::length(_Ptr)));
; 1485 : 		}
; 1486 : 
; 1487 : 	_Myt& replace(size_type _Off,
; 1488 : 		size_type _N0, size_type _Count, _Elem _Ch)
; 1489 : 		{	// replace [_Off, _Off + _N0) with _Count * _Ch
; 1490 : 		if (this->_Mysize < _Off)
; 1491 : 			_Xran();	// _Off off end
; 1492 : 		if (this->_Mysize - _Off < _N0)
; 1493 : 			_N0 = this->_Mysize - _Off;	// trim _N0 to size
; 1494 : 		if (npos - _Count <= this->_Mysize - _N0)
; 1495 : 			_Xlen();	// result too long
; 1496 : 		size_type _Nm = this->_Mysize - _N0 - _Off;
; 1497 : 
; 1498 : 		if (_Count < _N0)
; 1499 : 			_Traits::move(this->_Myptr() + _Off + _Count,
; 1500 : 				this->_Myptr() + _Off + _N0,
; 1501 : 				_Nm);	// smaller hole, move tail up
; 1502 : 		size_type _Num;
; 1503 : 		if ((0 < _Count || 0 < _N0)
; 1504 : 			&& _Grow(_Num = this->_Mysize + _Count - _N0))
; 1505 : 			{	// make room and rearrange
; 1506 : 			if (_N0 < _Count)
; 1507 : 				_Traits::move(this->_Myptr() + _Off + _Count,
; 1508 : 					this->_Myptr() + _Off + _N0, _Nm);	// move tail down
; 1509 : 			_Chassign(_Off, _Count, _Ch);	// fill hole
; 1510 : 			_Eos(_Num);
; 1511 : 			}
; 1512 : 		return (*this);
; 1513 : 		}
; 1514 : 
; 1515 : 	_Myt& replace(const_iterator _First, const_iterator _Last,
; 1516 : 		const _Myt& _Right)
; 1517 : 		{	// replace [_First, _Last) with _Right
; 1518 : 		return (replace(
; 1519 : 			_Pdif(_First, begin()), _Pdif(_Last, _First), _Right));
; 1520 : 		}
; 1521 : 
; 1522 : 	_Myt& replace(const_iterator _First, const_iterator _Last,
; 1523 : 		const _Elem *_Ptr, size_type _Count)
; 1524 : 		{	// replace [_First, _Last) with [_Ptr, _Ptr + _Count)
; 1525 : 		return (replace(
; 1526 : 			_Pdif(_First, begin()), _Pdif(_Last, _First), _Ptr, _Count));
; 1527 : 		}
; 1528 : 
; 1529 : 	_Myt& replace(const_iterator _First, const_iterator _Last,
; 1530 : 		const _Elem *_Ptr)
; 1531 : 		{	// replace [_First, _Last) with [_Ptr, <null>)
; 1532 : 		return (replace(
; 1533 : 			_Pdif(_First, begin()), _Pdif(_Last, _First), _Ptr));
; 1534 : 		}
; 1535 : 
; 1536 : 	_Myt& replace(const_iterator _First, const_iterator _Last,
; 1537 : 		size_type _Count, _Elem _Ch)
; 1538 : 		{	// replace [_First, _Last) with _Count * _Ch
; 1539 : 		return (replace(
; 1540 : 			_Pdif(_First, begin()), _Pdif(_Last, _First), _Count, _Ch));
; 1541 : 		}
; 1542 : 
; 1543 : 	template<class _Iter>
; 1544 : 		typename enable_if<_Is_iterator<_Iter>::value,
; 1545 : 			_Myt&>::type
; 1546 : 		replace(const_iterator _First, const_iterator _Last,
; 1547 : 			_Iter _First2, _Iter _Last2)
; 1548 : 		{	// replace [_First, _Last) with [_First2, _Last2), input iterators
; 1549 : 		_Myt _Right(_First2, _Last2);
; 1550 : 		replace(_First, _Last, _Right);
; 1551 : 		return (*this);
; 1552 : 		}
; 1553 : 
; 1554 : 	_Myt& replace(const_iterator _First, const_iterator _Last,
; 1555 : 		const_pointer _First2, const_pointer _Last2)
; 1556 : 		{	// replace [_First, _Last) with [_First2, _Last2), const pointers
; 1557 : 		if (_First2 == _Last2)
; 1558 : 			erase(_Pdif(_First, begin()), _Pdif(_Last, _First));
; 1559 : 		else
; 1560 : 			replace(_Pdif(_First, begin()), _Pdif(_Last, _First),
; 1561 : 				&*_First2, _Last2 - _First2);
; 1562 : 		return (*this);
; 1563 : 		}
; 1564 : 
; 1565 : 	_Myt& replace(const_iterator _First, const_iterator _Last,
; 1566 : 		pointer _First2, pointer _Last2)
; 1567 : 		{	// replace [_First, _Last) with [_First2, _Last2), const pointers
; 1568 : 		if (_First2 == _Last2)
; 1569 : 			erase(_Pdif(_First, begin()), _Pdif(_Last, _First));
; 1570 : 		else
; 1571 : 			replace(_Pdif(_First, begin()), _Pdif(_Last, _First),
; 1572 : 				&*_First2, _Last2 - _First2);
; 1573 : 		return (*this);
; 1574 : 		}
; 1575 : 
; 1576 : 	_Myt& replace(const_iterator _First, const_iterator _Last,
; 1577 : 		const_iterator _First2, const_iterator _Last2)
; 1578 : 		{	// replace [_First, _Last) with [_First2, _Last2), const_iterators
; 1579 : 		if (_First2 == _Last2)
; 1580 : 			erase(_Pdif(_First, begin()), _Pdif(_Last, _First));
; 1581 : 		else
; 1582 : 			replace(_Pdif(_First, begin()), _Pdif(_Last, _First),
; 1583 : 				&*_First2, _Last2 - _First2);
; 1584 : 		return (*this);
; 1585 : 		}
; 1586 : 
; 1587 : 	_Myt& replace(const_iterator _First, const_iterator _Last,
; 1588 : 		iterator _First2, iterator _Last2)
; 1589 : 		{	// replace [_First, _Last) with [_First2, _Last2), const_iterators
; 1590 : 		if (_First2 == _Last2)
; 1591 : 			erase(_Pdif(_First, begin()), _Pdif(_Last, _First));
; 1592 : 		else
; 1593 : 			replace(_Pdif(_First, begin()), _Pdif(_Last, _First),
; 1594 : 				&*_First2, _Last2 - _First2);
; 1595 : 		return (*this);
; 1596 : 		}
; 1597 : 
; 1598 : 	iterator begin() _NOEXCEPT
; 1599 : 		{	// return iterator for beginning of mutable sequence
; 1600 : 		return (_STRING_ITERATOR(this->_Myptr()));
; 1601 : 		}
; 1602 : 
; 1603 : 	const_iterator begin() const _NOEXCEPT
; 1604 : 		{	// return iterator for beginning of nonmutable sequence
; 1605 : 		return (_STRING_CONST_ITERATOR(this->_Myptr()));
; 1606 : 		}
; 1607 : 
; 1608 : 	iterator end() _NOEXCEPT
; 1609 : 		{	// return iterator for end of mutable sequence
; 1610 : 		return (_STRING_ITERATOR(this->_Myptr() + this->_Mysize));
; 1611 : 		}
; 1612 : 
; 1613 : 	const_iterator end() const _NOEXCEPT
; 1614 : 		{	// return iterator for end of nonmutable sequence
; 1615 : 		return (_STRING_CONST_ITERATOR(this->_Myptr() + this->_Mysize));
; 1616 : 		}
; 1617 : 
; 1618 : 	reverse_iterator rbegin() _NOEXCEPT
; 1619 : 		{	// return iterator for beginning of reversed mutable sequence
; 1620 : 		return (reverse_iterator(end()));
; 1621 : 		}
; 1622 : 
; 1623 : 	const_reverse_iterator rbegin() const _NOEXCEPT
; 1624 : 		{	// return iterator for beginning of reversed nonmutable sequence
; 1625 : 		return (const_reverse_iterator(end()));
; 1626 : 		}
; 1627 : 
; 1628 : 	reverse_iterator rend() _NOEXCEPT
; 1629 : 		{	// return iterator for end of reversed mutable sequence
; 1630 : 		return (reverse_iterator(begin()));
; 1631 : 		}
; 1632 : 
; 1633 : 	const_reverse_iterator rend() const _NOEXCEPT
; 1634 : 		{	// return iterator for end of reversed nonmutable sequence
; 1635 : 		return (const_reverse_iterator(begin()));
; 1636 : 		}
; 1637 : 
; 1638 : 	const_iterator cbegin() const _NOEXCEPT
; 1639 : 		{	// return iterator for beginning of nonmutable sequence
; 1640 : 		return (((const _Myt *)this)->begin());
; 1641 : 		}
; 1642 : 
; 1643 : 	const_iterator cend() const _NOEXCEPT
; 1644 : 		{	// return iterator for end of nonmutable sequence
; 1645 : 		return (((const _Myt *)this)->end());
; 1646 : 		}
; 1647 : 
; 1648 : 	const_reverse_iterator crbegin() const _NOEXCEPT
; 1649 : 		{	// return iterator for beginning of reversed nonmutable sequence
; 1650 : 		return (((const _Myt *)this)->rbegin());
; 1651 : 		}
; 1652 : 
; 1653 : 	const_reverse_iterator crend() const _NOEXCEPT
; 1654 : 		{	// return iterator for end of reversed nonmutable sequence
; 1655 : 		return (((const _Myt *)this)->rend());
; 1656 : 		}
; 1657 : 
; 1658 : 	void shrink_to_fit()
; 1659 : 		{	// reduce capacity
; 1660 : 		if ((size() | this->_ALLOC_MASK) < capacity())
; 1661 : 			{	// worth shrinking, do it
; 1662 : 			_Myt _Tmp(*this);
; 1663 : 			swap(_Tmp);
; 1664 : 			}
; 1665 : 		}
; 1666 : 
; 1667 : 	reference at(size_type _Off)
; 1668 : 		{	// subscript mutable sequence with checking
; 1669 : 		if (this->_Mysize <= _Off)
; 1670 : 			_Xran();	// _Off off end
; 1671 : 		return (this->_Myptr()[_Off]);
; 1672 : 		}
; 1673 : 
; 1674 : 	const_reference at(size_type _Off) const
; 1675 : 		{	// subscript nonmutable sequence with checking
; 1676 : 		if (this->_Mysize <= _Off)
; 1677 : 			_Xran();	// _Off off end
; 1678 : 		return (this->_Myptr()[_Off]);
; 1679 : 		}
; 1680 : 
; 1681 : 	reference operator[](size_type _Off)
; 1682 : 		{	// subscript mutable sequence
; 1683 :  #if _ITERATOR_DEBUG_LEVEL == 2
; 1684 : 		if (this->_Mysize < _Off)	// sic
; 1685 : 			_DEBUG_ERROR("string subscript out of range");
; 1686 : 
; 1687 :  #elif _ITERATOR_DEBUG_LEVEL == 1
; 1688 : 		_SCL_SECURE_VALIDATE_RANGE(_Off <= this->_Mysize);	// sic
; 1689 :  #endif /* _ITERATOR_DEBUG_LEVEL == 2 */
; 1690 : 
; 1691 : 		return (this->_Myptr()[_Off]);
; 1692 : 		}
; 1693 : 
; 1694 : 	const_reference operator[](size_type _Off) const
; 1695 : 		{	// subscript nonmutable sequence
; 1696 :  #if _ITERATOR_DEBUG_LEVEL == 2
; 1697 : 		if (this->_Mysize < _Off)	// sic
; 1698 : 			_DEBUG_ERROR("string subscript out of range");
; 1699 : 
; 1700 :  #elif _ITERATOR_DEBUG_LEVEL == 1
; 1701 : 		_SCL_SECURE_VALIDATE_RANGE(_Off <= this->_Mysize);	// sic
; 1702 :  #endif /* _ITERATOR_DEBUG_LEVEL == 2 */
; 1703 : 
; 1704 : 		return (this->_Myptr()[_Off]);
; 1705 : 		}
; 1706 : 
; 1707 : 	void push_back(_Elem _Ch)
; 1708 : 		{	// insert element at end
; 1709 : 		insert(end(), _Ch);
; 1710 : 		}
; 1711 : 
; 1712 : 	void pop_back()
; 1713 : 		{	// erase element at end
; 1714 : 		erase(this->_Mysize - 1);	// throws if _Mysize == 0
; 1715 : 		}
; 1716 : 
; 1717 : 	reference front()
; 1718 : 		{	// return first element of mutable sequence
; 1719 : 		return (*begin());
; 1720 : 		}
; 1721 : 
; 1722 : 	const_reference front() const
; 1723 : 		{	// return first element of nonmutable sequence
; 1724 : 		return (*begin());
; 1725 : 		}
; 1726 : 
; 1727 : 	reference back()
; 1728 : 		{	// return last element of mutable sequence
; 1729 : 		return (*(end() - 1));
; 1730 : 		}
; 1731 : 
; 1732 : 	const_reference back() const
; 1733 : 		{	// return last element of nonmutable sequence
; 1734 : 		return (*(end() - 1));
; 1735 : 		}
; 1736 : 
; 1737 : 	const _Elem *c_str() const _NOEXCEPT
; 1738 : 		{	// return pointer to null-terminated nonmutable array
; 1739 : 		return (this->_Myptr());
; 1740 : 		}
; 1741 : 
; 1742 : 	const _Elem *data() const _NOEXCEPT
; 1743 : 		{	// return pointer to nonmutable array
; 1744 : 		return (c_str());
; 1745 : 		}
; 1746 : 
; 1747 : 	size_type length() const _NOEXCEPT
; 1748 : 		{	// return length of sequence
; 1749 : 		return (this->_Mysize);
; 1750 : 		}
; 1751 : 
; 1752 : 	size_type size() const _NOEXCEPT
; 1753 : 		{	// return length of sequence
; 1754 : 		return (this->_Mysize);
; 1755 : 		}
; 1756 : 
; 1757 : 	size_type max_size() const _NOEXCEPT
; 1758 : 		{	// return maximum possible length of sequence
; 1759 : 		size_type _Num = this->_Getal().max_size();
; 1760 : 		return (_Num <= 1 ? 1 : _Num - 1);
; 1761 : 		}
; 1762 : 
; 1763 : 	void resize(size_type _Newsize)
; 1764 : 		{	// determine new length, padding with null elements as needed
; 1765 : 		resize(_Newsize, _Elem());
; 1766 : 		}
; 1767 : 
; 1768 : 	void resize(size_type _Newsize, _Elem _Ch)
; 1769 : 		{	// determine new length, padding with _Ch elements as needed
; 1770 : 		if (_Newsize <= this->_Mysize)
; 1771 : 			_Eos(_Newsize);
; 1772 : 		else
; 1773 : 			append(_Newsize - this->_Mysize, _Ch);
; 1774 : 		}
; 1775 : 
; 1776 : 	size_type capacity() const _NOEXCEPT
; 1777 : 		{	// return current length of allocated storage
; 1778 : 		return (this->_Myres);
; 1779 : 		}
; 1780 : 
; 1781 : 	void reserve(size_type _Newcap = 0)
; 1782 : 		{	// determine new minimum length of allocated storage
; 1783 : 		if (this->_Mysize <= _Newcap && this->_Myres != _Newcap)
; 1784 : 			{	// change reservation
; 1785 : 			size_type _Size = this->_Mysize;
; 1786 : 			if (_Grow(_Newcap, true))
; 1787 : 				_Eos(_Size);
; 1788 : 			}
; 1789 : 		}
; 1790 : 
; 1791 : 	bool empty() const _NOEXCEPT
; 1792 : 		{	// test if sequence is empty
; 1793 : 		return (this->_Mysize == 0);
; 1794 : 		}
; 1795 : 
; 1796 : 	_SCL_INSECURE_DEPRECATE
; 1797 : 
; 1798 : 	size_type copy(_Elem *_Ptr,
; 1799 : 		size_type _Count, size_type _Off = 0) const
; 1800 : 		{	// copy [_Off, _Off + _Count) to [_Ptr, _Ptr + _Count)
; 1801 :  #if _ITERATOR_DEBUG_LEVEL == 2
; 1802 : 		if (_Count != 0)
; 1803 : 			_DEBUG_POINTER(_Ptr);
; 1804 :  #endif /* _ITERATOR_DEBUG_LEVEL == 2 */
; 1805 : 
; 1806 : 		if (this->_Mysize < _Off)
; 1807 : 			_Xran();	// _Off off end
; 1808 : 		if (this->_Mysize - _Off < _Count)
; 1809 : 			_Count = this->_Mysize - _Off;
; 1810 : 		_Traits::copy(_Ptr, this->_Myptr() + _Off, _Count);
; 1811 : 		return (_Count);
; 1812 : 		}
; 1813 : 
; 1814 : 	size_type _Copy_s(_Elem *_Dest, size_type _Dest_size,
; 1815 : 		size_type _Count, size_type _Off = 0) const
; 1816 : 		{	// copy [_Off, _Off + _Count) to [_Dest, _Dest + _Count)
; 1817 :  #if _ITERATOR_DEBUG_LEVEL == 2
; 1818 : 		if (_Count != 0)
; 1819 : 			_DEBUG_POINTER(_Dest);
; 1820 :  #endif /* _ITERATOR_DEBUG_LEVEL == 2 */
; 1821 : 
; 1822 : 		if (this->_Mysize < _Off)
; 1823 : 			_Xran();	// _Off off end
; 1824 : 		if (this->_Mysize - _Off < _Count)
; 1825 : 			_Count = this->_Mysize - _Off;
; 1826 : 		_Traits::_Copy_s(_Dest, _Dest_size, this->_Myptr() + _Off, _Count);
; 1827 : 		return (_Count);
; 1828 : 		}
; 1829 : 
; 1830 : 	void _Swap_bx(_Myt& _Right)
; 1831 : 		{	// exchange _Bx with _Right._Bx
; 1832 : 		if (this->_BUF_SIZE <= this->_Myres)
; 1833 : 			if (this->_BUF_SIZE <= _Right._Myres)
; 1834 : 				_Swap_adl(this->_Bx._Ptr, _Right._Bx._Ptr);
; 1835 : 			else
; 1836 : 				{	// swap large with small
; 1837 : 				pointer _Ptr = this->_Bx._Ptr;
; 1838 : 				this->_Getal().destroy(&this->_Bx._Ptr);
; 1839 : 				_Traits::copy(this->_Bx._Buf,
; 1840 : 					_Right._Bx._Buf, _Right._Mysize + 1);
; 1841 : 				this->_Getal().construct(&_Right._Bx._Ptr, _Ptr);
; 1842 : 				}
; 1843 : 		else
; 1844 : 			if (_Right._Myres < this->_BUF_SIZE)
; 1845 : 				_STD swap(this->_Bx._Buf, _Right._Bx._Buf);
; 1846 : 			else
; 1847 : 				{	// swap small with large
; 1848 : 				pointer _Ptr = _Right._Bx._Ptr;
; 1849 : 				this->_Getal().destroy(&_Right._Bx._Ptr);
; 1850 : 				_Traits::copy(_Right._Bx._Buf,
; 1851 : 					this->_Bx._Buf, this->_Mysize + 1);
; 1852 : 				this->_Getal().construct(&this->_Bx._Ptr, _Ptr);
; 1853 : 				}
; 1854 : 		}
; 1855 : 
; 1856 : 	void swap(_Myt& _Right)
; 1857 : 		{	// exchange contents with _Right
; 1858 : 		if (this == &_Right)
; 1859 : 			;	// same object, do nothing
; 1860 : 		else if (this->_Getal() == _Right._Getal())
; 1861 : 			{	// same allocator, swap control information
; 1862 : 			this->_Swap_all(_Right);
; 1863 : 			_Swap_bx(_Right);
; 1864 : 			_STD swap(this->_Mysize, _Right._Mysize);
; 1865 : 			_STD swap(this->_Myres, _Right._Myres);
; 1866 : 			}
; 1867 : 
; 1868 : 		else if (_Alty::propagate_on_container_swap::value)
; 1869 : 			{	// swap allocators and control information
; 1870 : 			this->_Swap_alloc(_Right);
; 1871 : 			_Swap_bx(_Right);
; 1872 : 			_STD swap(this->_Bx, _Right._Bx);	// pointer bitwise copyable?
; 1873 : 			_STD swap(this->_Mysize, _Right._Mysize);
; 1874 : 			_STD swap(this->_Myres, _Right._Myres);
; 1875 : 			}
; 1876 : 
; 1877 : 		else
; 1878 : 			{	// different allocator, do multiple assigns
; 1879 : 			_Myt _Tmp = *this;
; 1880 : 
; 1881 : 			*this = _Right;
; 1882 : 			_Right = _Tmp;
; 1883 : 			}
; 1884 : 		}
; 1885 : 
; 1886 : 	size_type find(const _Myt& _Right, size_type _Off = 0) const _NOEXCEPT
; 1887 : 		{	// look for _Right beginning at or after _Off
; 1888 : 		return (find(_Right._Myptr(), _Off, _Right.size()));
; 1889 : 		}
; 1890 : 
; 1891 : 	size_type find(const _Elem *_Ptr,
; 1892 : 		size_type _Off, size_type _Count) const
; 1893 : 		{	// look for [_Ptr, _Ptr + _Count) beginning at or after _Off
; 1894 :  #if _ITERATOR_DEBUG_LEVEL == 2
; 1895 : 		if (_Count != 0)
; 1896 : 			_DEBUG_POINTER(_Ptr);
; 1897 :  #endif /* _ITERATOR_DEBUG_LEVEL == 2 */
; 1898 : 
; 1899 : 		if (_Count == 0 && _Off <= this->_Mysize)
; 1900 : 			return (_Off);	// null string always matches (if inside string)
; 1901 : 
; 1902 : 		size_type _Nm;
; 1903 : 		if (_Off < this->_Mysize && _Count <= (_Nm = this->_Mysize - _Off))
; 1904 : 			{	// room for match, look for it
; 1905 : 			const _Elem *_Uptr, *_Vptr;
; 1906 : 			for (_Nm -= _Count - 1, _Vptr = this->_Myptr() + _Off;
; 1907 : 				(_Uptr = _Traits::find(_Vptr, _Nm, *_Ptr)) != 0;
; 1908 : 				_Nm -= _Uptr - _Vptr + 1, _Vptr = _Uptr + 1)
; 1909 : 				if (_Traits::compare(_Uptr, _Ptr, _Count) == 0)
; 1910 : 					return (_Uptr - this->_Myptr());	// found a match
; 1911 : 			}
; 1912 : 
; 1913 : 		return (npos);	// no match
; 1914 : 		}
; 1915 : 
; 1916 : 	size_type find(const _Elem *_Ptr, size_type _Off = 0) const
; 1917 : 		{	// look for [_Ptr, <null>) beginning at or after _Off
; 1918 : 		_DEBUG_POINTER(_Ptr);
; 1919 : 		return (find(_Ptr, _Off, _Traits::length(_Ptr)));
; 1920 : 		}
; 1921 : 
; 1922 : 	size_type find(_Elem _Ch, size_type _Off = 0) const
; 1923 : 		{	// look for _Ch at or after _Off
; 1924 : 		return (find((const _Elem *)&_Ch, _Off, 1));
; 1925 : 		}
; 1926 : 
; 1927 : 	size_type rfind(const _Myt& _Right, size_type _Off = npos) const _NOEXCEPT
; 1928 : 		{	// look for _Right beginning before _Off
; 1929 : 		return (rfind(_Right._Myptr(), _Off, _Right.size()));
; 1930 : 		}
; 1931 : 
; 1932 : 	size_type rfind(const _Elem *_Ptr,
; 1933 : 		size_type _Off, size_type _Count) const
; 1934 : 		{	// look for [_Ptr, _Ptr + _Count) beginning before _Off
; 1935 :  #if _ITERATOR_DEBUG_LEVEL == 2
; 1936 : 		if (_Count != 0)
; 1937 : 			_DEBUG_POINTER(_Ptr);
; 1938 :  #endif /* _ITERATOR_DEBUG_LEVEL == 2 */
; 1939 : 
; 1940 : 		if (_Count == 0)
; 1941 : 			return (_Off < this->_Mysize ? _Off
; 1942 : 				: this->_Mysize);	// null always matches
; 1943 : 		if (_Count <= this->_Mysize)
; 1944 : 			{	// room for match, look for it
; 1945 : 			const _Elem *_Uptr = this->_Myptr() +
; 1946 : 				(_Off < this->_Mysize - _Count ? _Off
; 1947 : 					: this->_Mysize - _Count);
; 1948 : 			for (; ; --_Uptr)
; 1949 : 				if (_Traits::eq(*_Uptr, *_Ptr)
; 1950 : 					&& _Traits::compare(_Uptr, _Ptr, _Count) == 0)
; 1951 : 					return (_Uptr - this->_Myptr());	// found a match
; 1952 : 				else if (_Uptr == this->_Myptr())
; 1953 : 					break;	// at beginning, no more chance for match
; 1954 : 			}
; 1955 : 
; 1956 : 		return (npos);	// no match
; 1957 : 		}
; 1958 : 
; 1959 : 	size_type rfind(const _Elem *_Ptr, size_type _Off = npos) const
; 1960 : 		{	// look for [_Ptr, <null>) beginning before _Off
; 1961 : 		_DEBUG_POINTER(_Ptr);
; 1962 : 		return (rfind(_Ptr, _Off, _Traits::length(_Ptr)));
; 1963 : 		}
; 1964 : 
; 1965 : 	size_type rfind(_Elem _Ch, size_type _Off = npos) const
; 1966 : 		{	// look for _Ch before _Off
; 1967 : 		return (rfind((const _Elem *)&_Ch, _Off, 1));
; 1968 : 		}
; 1969 : 
; 1970 : 	size_type find_first_of(const _Myt& _Right,
; 1971 : 		size_type _Off = 0) const _NOEXCEPT
; 1972 : 		{	// look for one of _Right at or after _Off
; 1973 : 		return (find_first_of(_Right._Myptr(), _Off, _Right.size()));
; 1974 : 		}
; 1975 : 
; 1976 : 	size_type find_first_of(const _Elem *_Ptr,
; 1977 : 		size_type _Off, size_type _Count) const
; 1978 : 		{	// look for one of [_Ptr, _Ptr + _Count) at or after _Off
; 1979 :  #if _ITERATOR_DEBUG_LEVEL == 2
; 1980 : 		if (_Count != 0)
; 1981 : 			_DEBUG_POINTER(_Ptr);
; 1982 :  #endif /* _ITERATOR_DEBUG_LEVEL == 2 */
; 1983 : 
; 1984 : 		if (0 < _Count && _Off < this->_Mysize)
; 1985 : 			{	// room for match, look for it
; 1986 : 			const _Elem *const _Vptr = this->_Myptr() + this->_Mysize;
; 1987 : 			for (const _Elem *_Uptr = this->_Myptr() + _Off;
; 1988 : 				_Uptr < _Vptr; ++_Uptr)
; 1989 : 				if (_Traits::find(_Ptr, _Count, *_Uptr) != 0)
; 1990 : 					return (_Uptr - this->_Myptr());	// found a match
; 1991 : 			}
; 1992 : 
; 1993 : 		return (npos);	// no match
; 1994 : 		}
; 1995 : 
; 1996 : 	size_type find_first_of(const _Elem *_Ptr,
; 1997 : 		size_type _Off = 0) const
; 1998 : 		{	// look for one of [_Ptr, <null>) at or after _Off
; 1999 : 		_DEBUG_POINTER(_Ptr);
; 2000 : 		return (find_first_of(_Ptr, _Off, _Traits::length(_Ptr)));
; 2001 : 		}
; 2002 : 
; 2003 : 	size_type find_first_of(_Elem _Ch,
; 2004 : 		size_type _Off = 0) const
; 2005 : 		{	// look for _Ch at or after _Off
; 2006 : 		return (find((const _Elem *)&_Ch, _Off, 1));
; 2007 : 		}
; 2008 : 
; 2009 : 	size_type find_last_of(const _Myt& _Right,
; 2010 : 		size_type _Off = npos) const _NOEXCEPT
; 2011 : 		{	// look for one of _Right before _Off
; 2012 : 		return (find_last_of(_Right._Myptr(), _Off, _Right.size()));
; 2013 : 		}
; 2014 : 
; 2015 : 	size_type find_last_of(const _Elem *_Ptr,
; 2016 : 		size_type _Off, size_type _Count) const
; 2017 : 		{	// look for one of [_Ptr, _Ptr + _Count) before _Off
; 2018 :  #if _ITERATOR_DEBUG_LEVEL == 2
; 2019 : 		if (_Count != 0)
; 2020 : 			_DEBUG_POINTER(_Ptr);
; 2021 :  #endif /* _ITERATOR_DEBUG_LEVEL == 2 */
; 2022 : 
; 2023 : 		if (0 < _Count && 0 < this->_Mysize)
; 2024 : 			{	// worth searching, do it
; 2025 : 			const _Elem *_Uptr = this->_Myptr()
; 2026 : 				+ (_Off < this->_Mysize ? _Off : this->_Mysize - 1);
; 2027 : 			for (; ; --_Uptr)
; 2028 : 				if (_Traits::find(_Ptr, _Count, *_Uptr) != 0)
; 2029 : 					return (_Uptr - this->_Myptr());	// found a match
; 2030 : 				else if (_Uptr == this->_Myptr())
; 2031 : 					break;	// at beginning, no more chance for match
; 2032 : 			}
; 2033 : 
; 2034 : 		return (npos);	// no match
; 2035 : 		}
; 2036 : 
; 2037 : 	size_type find_last_of(const _Elem *_Ptr,
; 2038 : 		size_type _Off = npos) const
; 2039 : 		{	// look for one of [_Ptr, <null>) before _Off
; 2040 : 		_DEBUG_POINTER(_Ptr);
; 2041 : 		return (find_last_of(_Ptr, _Off, _Traits::length(_Ptr)));
; 2042 : 		}
; 2043 : 
; 2044 : 	size_type find_last_of(_Elem _Ch,
; 2045 : 		size_type _Off = npos) const
; 2046 : 		{	// look for _Ch before _Off
; 2047 : 		return (rfind((const _Elem *)&_Ch, _Off, 1));
; 2048 : 		}
; 2049 : 
; 2050 : 	size_type find_first_not_of(const _Myt& _Right,
; 2051 : 		size_type _Off = 0) const _NOEXCEPT
; 2052 : 		{	// look for none of _Right at or after _Off
; 2053 : 		return (find_first_not_of(_Right._Myptr(), _Off,
; 2054 : 			_Right.size()));
; 2055 : 		}
; 2056 : 
; 2057 : 	size_type find_first_not_of(const _Elem *_Ptr,
; 2058 : 		size_type _Off, size_type _Count) const
; 2059 : 		{	// look for none of [_Ptr, _Ptr + _Count) at or after _Off
; 2060 :  #if _ITERATOR_DEBUG_LEVEL == 2
; 2061 : 		if (_Count != 0)
; 2062 : 			_DEBUG_POINTER(_Ptr);
; 2063 :  #endif /* _ITERATOR_DEBUG_LEVEL == 2 */
; 2064 : 
; 2065 : 		if (_Off < this->_Mysize)
; 2066 : 			{	// room for match, look for it
; 2067 : 			const _Elem *const _Vptr = this->_Myptr() + this->_Mysize;
; 2068 : 			for (const _Elem *_Uptr = this->_Myptr() + _Off;
; 2069 : 				_Uptr < _Vptr; ++_Uptr)
; 2070 : 				if (_Traits::find(_Ptr, _Count, *_Uptr) == 0)
; 2071 : 					return (_Uptr - this->_Myptr());
; 2072 : 			}
; 2073 : 		return (npos);
; 2074 : 		}
; 2075 : 
; 2076 : 	size_type find_first_not_of(const _Elem *_Ptr,
; 2077 : 		size_type _Off = 0) const
; 2078 : 		{	// look for one of [_Ptr, <null>) at or after _Off
; 2079 : 		_DEBUG_POINTER(_Ptr);
; 2080 : 		return (find_first_not_of(_Ptr, _Off, _Traits::length(_Ptr)));
; 2081 : 		}
; 2082 : 
; 2083 : 	size_type find_first_not_of(_Elem _Ch,
; 2084 : 		size_type _Off = 0) const
; 2085 : 		{	// look for non _Ch at or after _Off
; 2086 : 		return (find_first_not_of((const _Elem *)&_Ch, _Off, 1));
; 2087 : 		}
; 2088 : 
; 2089 : 	size_type find_last_not_of(const _Myt& _Right,
; 2090 : 		size_type _Off = npos) const _NOEXCEPT
; 2091 : 		{	// look for none of _Right before _Off
; 2092 : 		return (find_last_not_of(_Right._Myptr(), _Off, _Right.size()));
; 2093 : 		}
; 2094 : 
; 2095 : 	size_type find_last_not_of(const _Elem *_Ptr,
; 2096 : 		size_type _Off, size_type _Count) const
; 2097 : 		{	// look for none of [_Ptr, _Ptr + _Count) before _Off
; 2098 :  #if _ITERATOR_DEBUG_LEVEL == 2
; 2099 : 		if (_Count != 0)
; 2100 : 			_DEBUG_POINTER(_Ptr);
; 2101 :  #endif /* _ITERATOR_DEBUG_LEVEL == 2 */
; 2102 : 
; 2103 : 		if (0 < this->_Mysize)
; 2104 : 			{	// worth searching, do it
; 2105 : 			const _Elem *_Uptr = this->_Myptr()
; 2106 : 				+ (_Off < this->_Mysize ? _Off : this->_Mysize - 1);
; 2107 : 			for (; ; --_Uptr)
; 2108 : 				if (_Traits::find(_Ptr, _Count, *_Uptr) == 0)
; 2109 : 					return (_Uptr - this->_Myptr());
; 2110 : 				else if (_Uptr == this->_Myptr())
; 2111 : 					break;
; 2112 : 			}
; 2113 : 		return (npos);
; 2114 : 		}
; 2115 : 
; 2116 : 	size_type find_last_not_of(const _Elem *_Ptr,
; 2117 : 		size_type _Off = npos) const
; 2118 : 		{	// look for none of [_Ptr, <null>) before _Off
; 2119 : 		_DEBUG_POINTER(_Ptr);
; 2120 : 		return (find_last_not_of(_Ptr, _Off, _Traits::length(_Ptr)));
; 2121 : 		}
; 2122 : 
; 2123 : 	size_type find_last_not_of(_Elem _Ch,
; 2124 : 		size_type _Off = npos) const
; 2125 : 		{	// look for non _Ch before _Off
; 2126 : 		return (find_last_not_of((const _Elem *)&_Ch, _Off, 1));
; 2127 : 		}
; 2128 : 
; 2129 : 	_Myt substr(size_type _Off = 0, size_type _Count = npos) const
; 2130 : 		{	// return [_Off, _Off + _Count) as new string
; 2131 : 		return (_Myt(*this, _Off, _Count, get_allocator()));
; 2132 : 		}
; 2133 : 
; 2134 : 	int compare(const _Myt& _Right) const _NOEXCEPT
; 2135 : 		{	// compare [0, _Mysize) with _Right
; 2136 : 		return (compare(0, this->_Mysize, _Right._Myptr(), _Right.size()));
; 2137 : 		}
; 2138 : 
; 2139 : 	int compare(size_type _Off, size_type _N0,
; 2140 : 		const _Myt& _Right) const
; 2141 : 		{	// compare [_Off, _Off + _N0) with _Right
; 2142 : 		return (compare(_Off, _N0, _Right, 0, npos));
; 2143 : 		}
; 2144 : 
; 2145 : 	int compare(size_type _Off,
; 2146 : 		size_type _N0, const _Myt& _Right,
; 2147 : 		size_type _Roff, size_type _Count) const
; 2148 : 		{	// compare [_Off, _Off + _N0) with _Right [_Roff, _Roff + _Count)
; 2149 : 		if (_Right.size() < _Roff)
; 2150 : 			_Xran();	// _Off off end
; 2151 : 		if (_Right._Mysize - _Roff < _Count)
; 2152 : 			_Count = _Right._Mysize - _Roff;	// trim _Count to size
; 2153 : 		return (compare(_Off, _N0, _Right._Myptr() + _Roff, _Count));
; 2154 : 		}
; 2155 : 
; 2156 : 	int compare(const _Elem *_Ptr) const
; 2157 : 		{	// compare [0, _Mysize) with [_Ptr, <null>)
; 2158 : 		_DEBUG_POINTER(_Ptr);
; 2159 : 		return (compare(0, this->_Mysize, _Ptr, _Traits::length(_Ptr)));
; 2160 : 		}
; 2161 : 
; 2162 : 	int compare(size_type _Off, size_type _N0, const _Elem *_Ptr) const
; 2163 : 		{	// compare [_Off, _Off + _N0) with [_Ptr, <null>)
; 2164 : 		_DEBUG_POINTER(_Ptr);
; 2165 : 		return (compare(_Off, _N0, _Ptr, _Traits::length(_Ptr)));
; 2166 : 		}
; 2167 : 
; 2168 : 	int compare(size_type _Off,
; 2169 : 		size_type _N0, const _Elem *_Ptr, size_type _Count) const
; 2170 : 		{	// compare [_Off, _Off + _N0) with [_Ptr, _Ptr + _Count)
; 2171 :  #if _ITERATOR_DEBUG_LEVEL == 2
; 2172 : 		if (_Count != 0)
; 2173 : 			_DEBUG_POINTER(_Ptr);
; 2174 :  #endif /* _ITERATOR_DEBUG_LEVEL == 2 */
; 2175 : 
; 2176 : 		if (this->_Mysize < _Off)
; 2177 : 			_Xran();	// _Off off end
; 2178 : 		if (this->_Mysize - _Off < _N0)
; 2179 : 			_N0 = this->_Mysize - _Off;	// trim _N0 to size
; 2180 : 
; 2181 : 		size_type _Ans = _Traits::compare(this->_Myptr() + _Off, _Ptr,
; 2182 : 			_N0 < _Count ? _N0 : _Count);
; 2183 : 		return (_Ans != 0 ? (int)_Ans : _N0 < _Count ? -1
; 2184 : 			: _N0 == _Count ? 0 : +1);
; 2185 : 		}
; 2186 : 
; 2187 : 	allocator_type get_allocator() const _NOEXCEPT
; 2188 : 		{	// return allocator object for values
; 2189 : 		return (this->_Getal());
; 2190 : 		}
; 2191 : 
; 2192 : 	void _Chassign(size_type _Off, size_type _Count, _Elem _Ch)
; 2193 : 		{	// assign _Count copies of _Ch beginning at _Off
; 2194 : 		if (_Count == 1)
; 2195 : 			_Traits::assign(*(this->_Myptr() + _Off), _Ch);
; 2196 : 		else
; 2197 : 			_Traits::assign(this->_Myptr() + _Off, _Count, _Ch);
; 2198 : 		}
; 2199 : 
; 2200 : 	void _Copy(size_type _Newsize, size_type _Oldlen)
; 2201 : 		{	// copy _Oldlen elements to newly allocated buffer
; 2202 : 		size_type _Newres = _Newsize | this->_ALLOC_MASK;
; 2203 : 		if (max_size() < _Newres)
; 2204 : 			_Newres = _Newsize;	// undo roundup if too big
; 2205 : 		else if (this->_Myres / 2 <= _Newres / 3)
; 2206 : 			;
; 2207 : 		else if (this->_Myres <= max_size() - this->_Myres / 2)
; 2208 : 			_Newres = this->_Myres
; 2209 : 				+ this->_Myres / 2;	// grow exponentially if possible
; 2210 : 		else
; 2211 : 			_Newres = max_size();	// settle for max_size()
; 2212 : 
; 2213 : 		_Elem *_Ptr;
; 2214 : 		_TRY_BEGIN
; 2215 : 			_Ptr = this->_Getal().allocate(_Newres + 1);
; 2216 : 		_CATCH_ALL
; 2217 : 			_Newres = _Newsize;	// allocation failed, undo roundup and retry
; 2218 : 			_TRY_BEGIN
; 2219 : 				_Ptr = this->_Getal().allocate(_Newres + 1);
; 2220 : 			_CATCH_ALL
; 2221 : 			_Tidy(true);	// failed again, discard storage and reraise
; 2222 : 			_RERAISE;
; 2223 : 			_CATCH_END
; 2224 : 		_CATCH_END
; 2225 : 
; 2226 : 		if (0 < _Oldlen)
; 2227 : 			_Traits::copy(_Ptr, this->_Myptr(),
; 2228 : 				_Oldlen);	// copy existing elements
; 2229 : 		_Tidy(true);
; 2230 : 		this->_Getal().construct(&this->_Bx._Ptr, _Ptr);
; 2231 : 		this->_Myres = _Newres;
; 2232 : 		_Eos(_Oldlen);
; 2233 : 		}
; 2234 : 
; 2235 : 	void _Eos(size_type _Newsize)
; 2236 : 		{	// set new length and null terminator
; 2237 : 		_Traits::assign(this->_Myptr()[this->_Mysize = _Newsize], _Elem());

	mov	QWORD PTR [rdi+16], rbx
; File c:\program files (x86)\microsoft visual studio 12.0\vc\include\iosfwd

; 564  : 		_Left = _Right;

	mov	BYTE PTR [rdi], bl

; 523  : 			: _CSTD strlen(_First));

	cmp	BYTE PTR _Buf$[rsp], bl
	je	SHORT $LN48@to_string
	lea	rax, QWORD PTR _Buf$[rsp]
	or	rbx, -1
$LL49@to_string:
	inc	rbx
	cmp	BYTE PTR [rax+rbx], 0
	jne	SHORT $LL49@to_string
$LN48@to_string:
; File c:\program files (x86)\microsoft visual studio 12.0\vc\include\xstring

; 1169 : 		return (assign(_Ptr, _Traits::length(_Ptr)));

	mov	r8, rbx
	lea	rdx, QWORD PTR _Buf$[rsp]
	mov	rcx, rdi
	call	?assign@?$basic_string@DU?$char_traits@D@std@@V?$allocator@D@2@@std@@QEAAAEAV12@PEBD_K@Z ; std::basic_string<char,std::char_traits<char>,std::allocator<char> >::assign
	npad	1
	mov	DWORD PTR $T1[rsp], 1
; File c:\program files (x86)\microsoft visual studio 12.0\vc\include\string

; 513  : 	return (string(_Buf));

	mov	rax, rdi

; 514  : 	}

	mov	rbx, QWORD PTR [rsp+136]
	add	rsp, 112				; 00000070H
	pop	rdi
	ret	0
	int	3
?to_string@std@@YA?AV?$basic_string@DU?$char_traits@D@std@@V?$allocator@D@2@@1@I@Z ENDP ; std::to_string
_TEXT	ENDS
; Function compile flags: /Ogtpy
;	COMDAT text$x
text$x	SEGMENT
$T1 = 32
_Buf$ = 48
__$ReturnUdt$ = 128
_Val$ = 136
?dtor$0@?0??to_string@std@@YA?AV?$basic_string@DU?$char_traits@D@std@@V?$allocator@D@2@@1@I@Z@4HA PROC ; `std::to_string'::`1'::dtor$0
	push	rbp
	sub	rsp, 32					; 00000020H
	mov	rbp, rdx
	mov	eax, DWORD PTR $T1[rbp]
	and	eax, 1
	test	eax, eax
	je	SHORT $LN4@dtor$0
	and	DWORD PTR $T1[rbp], -2
	mov	rcx, QWORD PTR __$ReturnUdt$[rbp]
	call	??1?$basic_string@DU?$char_traits@D@std@@V?$allocator@D@2@@std@@QEAA@XZ ; std::basic_string<char,std::char_traits<char>,std::allocator<char> >::~basic_string<char,std::char_traits<char>,std::allocator<char> >
$LN4@dtor$0:
	add	rsp, 32					; 00000020H
	pop	rbp
	ret	0
?dtor$0@?0??to_string@std@@YA?AV?$basic_string@DU?$char_traits@D@std@@V?$allocator@D@2@@1@I@Z@4HA ENDP ; `std::to_string'::`1'::dtor$0
text$x	ENDS
; Function compile flags: /Ogtpy
; File d:\home\src\trinity\projects\trinity.lib\trinity\environment.h
;	COMDAT ?GetProcessorCount@Environment@Trinity@@YAKXZ
_TEXT	SEGMENT
systemInfo$ = 32
?GetProcessorCount@Environment@Trinity@@YAKXZ PROC	; Trinity::Environment::GetProcessorCount, COMDAT

; 37   : 		{

$LN4:
	mov	r11, rsp
	sub	rsp, 88					; 00000058H

; 38   : 			SYSTEM_INFO systemInfo;
; 39   : 			ZeroMemory(&systemInfo, sizeof(systemInfo));

	xor	eax, eax

; 40   : 			GetSystemInfo(&systemInfo);

	lea	rcx, QWORD PTR [r11-56]
	mov	QWORD PTR [r11-56], rax
	mov	QWORD PTR [r11-48], rax
	mov	QWORD PTR [r11-40], rax
	mov	QWORD PTR [r11-32], rax
	mov	QWORD PTR [r11-24], rax
	mov	QWORD PTR [r11-16], rax
	call	QWORD PTR __imp_GetSystemInfo

; 41   : 			return systemInfo.dwNumberOfProcessors;

	mov	eax, DWORD PTR systemInfo$[rsp+32]

; 42   : 		}

	add	rsp, 88					; 00000058H
	ret	0
?GetProcessorCount@Environment@Trinity@@YAKXZ ENDP	; Trinity::Environment::GetProcessorCount
_TEXT	ENDS
; Function compile flags: /Ogtpy
; File d:\home\src\trinity\projects\trinity.lib\trinity\io\path.h
; File d:\home\src\trinity\projects\trinity.lib\trinity\utf8\utf8.h
; File d:\home\src\trinity\projects\trinity.lib\trinity\io\path.h
; File d:\home\src\trinity\projects\trinity.lib\trinity\utf8\utf8.h
; File d:\home\src\trinity\projects\trinity.lib\trinity\io\path.h
; File d:\home\src\trinity\projects\trinity.lib\trinity\utf8\utf8.h
; File d:\home\src\trinity\projects\trinity.lib\trinity\io\path.h
; File d:\home\src\trinity\projects\trinity.lib\trinity\utf8\utf8.h
; File d:\home\src\trinity\projects\trinity.lib\trinity\io\path.h
; File d:\home\src\trinity\projects\trinity.lib\trinity\utf8\utf8.h
; File d:\home\src\trinity\projects\trinity.lib\trinity\io\path.h
; File d:\home\src\trinity\projects\trinity.lib\trinity\utf8\utf8.h
; File d:\home\src\trinity\projects\trinity.lib\trinity\io\path.h
; File d:\home\src\trinity\projects\trinity.lib\trinity\utf8\utf8.h
; File d:\home\src\trinity\projects\trinity.lib\trinity\io\path.h
; File d:\home\src\trinity\projects\trinity.lib\trinity\utf8\utf8.h
; File d:\home\src\trinity\projects\trinity.lib\trinity\io\path.h
; File d:\home\src\trinity\projects\trinity.lib\trinity\utf8\utf8.h
; File d:\home\src\trinity\projects\trinity.lib\trinity\io\path.h
; File d:\home\src\trinity\projects\trinity.lib\trinity\utf8\utf8.h
; File d:\home\src\trinity\projects\trinity.lib\trinity\io\path.h
; File d:\home\src\trinity\projects\trinity.lib\trinity\utf8\utf8.h
; File d:\home\src\trinity\projects\trinity.lib\trinity\io\path.h
; File d:\home\src\trinity\projects\trinity.lib\trinity\utf8\utf8.h
; File d:\home\src\trinity\projects\trinity.lib\trinity\io\path.h
; File d:\home\src\trinity\projects\trinity.lib\trinity\utf8\utf8.h
; File d:\home\src\trinity\projects\trinity.lib\trinity\io\path.h
; File d:\home\src\trinity\projects\trinity.lib\trinity\utf8\utf8.h
; File d:\home\src\trinity\projects\trinity.lib\trinity\io\path.h
; File d:\home\src\trinity\projects\trinity.lib\trinity\utf8\utf8.h
; File d:\home\src\trinity\projects\trinity.lib\trinity\io\path.h
; File d:\home\src\trinity\projects\trinity.lib\trinity\utf8\utf8.h
; File d:\home\src\trinity\projects\trinity.lib\trinity\io\path.h
; File d:\home\src\trinity\projects\trinity.lib\trinity\utf8\utf8.h
; File d:\home\src\trinity\projects\trinity.lib\trinity\io\path.h
; File d:\home\src\trinity\projects\trinity.lib\trinity\utf8\utf8.h
; File d:\home\src\trinity\projects\trinity.lib\trinity\io\path.h
; File d:\home\src\trinity\projects\trinity.lib\trinity\utf8\utf8.h
; File d:\home\src\trinity\projects\trinity.lib\trinity\io\path.h
; File d:\home\src\trinity\projects\trinity.lib\trinity\utf8\utf8.h
; File d:\home\src\trinity\projects\trinity.lib\trinity\io\path.h
;	COMDAT ??__EInvalidFileNameChars@Path@IO@Trinity@@YAXXZ
text$di	SEGMENT
chr$ = 48
chr$ = 48
chr$ = 48
chr$ = 48
chr$ = 48
chr$ = 48
chr$ = 48
chr$ = 48
chr$ = 48
chr$ = 48
chr$ = 48
chr$ = 48
chr$ = 48
chr$ = 48
chr$ = 48
chr$ = 48
chr$ = 48
ptr$1 = 56
ptr$2 = 56
ptr$3 = 56
ptr$4 = 56
ptr$5 = 56
ptr$6 = 56
ptr$7 = 56
ptr$8 = 56
ptr$9 = 56
ptr$10 = 56
ptr$11 = 56
ptr$12 = 56
ptr$13 = 56
ptr$14 = 56
ptr$15 = 56
ptr$16 = 56
ptr$17 = 56
??__EInvalidFileNameChars@Path@IO@Trinity@@YAXXZ PROC	; Trinity::IO::Path::`dynamic initializer for 'InvalidFileNameChars'', COMDAT

; 301  :             };

	push	rbp
	mov	rbp, rsp
	sub	rsp, 32					; 00000020H
; File d:\home\src\trinity\projects\trinity.lib\trinity\utf8\utf8.h

; 48   :             char* ptr = &chr;

	lea	rax, QWORD PTR chr$[rbp-32]

; 50   :             this->codePoint = utf8::next(ptr, ptr_end);

	lea	rdx, QWORD PTR chr$[rbp-31]
	lea	rcx, QWORD PTR ptr$17[rbp-32]
	mov	QWORD PTR ptr$17[rbp-32], rax
; File d:\home\src\trinity\projects\trinity.lib\trinity\io\path.h

; 301  :             };

	mov	BYTE PTR chr$[rbp-32], 34		; 00000022H
; File d:\home\src\trinity\projects\trinity.lib\trinity\utf8\utf8.h

; 50   :             this->codePoint = utf8::next(ptr, ptr_end);

	call	??$next@PEAD@utf8@@YAIAEAPEADPEAD@Z	; utf8::next<char * __ptr64>
	mov	DWORD PTR InvalidFileNameChars, eax

; 48   :             char* ptr = &chr;

	lea	rax, QWORD PTR chr$[rbp-32]

; 50   :             this->codePoint = utf8::next(ptr, ptr_end);

	lea	rdx, QWORD PTR chr$[rbp-31]
	lea	rcx, QWORD PTR ptr$16[rbp-32]
; File d:\home\src\trinity\projects\trinity.lib\trinity\io\path.h

; 301  :             };

	mov	BYTE PTR chr$[rbp-32], 60		; 0000003cH
; File d:\home\src\trinity\projects\trinity.lib\trinity\utf8\utf8.h

; 48   :             char* ptr = &chr;

	mov	QWORD PTR ptr$16[rbp-32], rax

; 50   :             this->codePoint = utf8::next(ptr, ptr_end);

	call	??$next@PEAD@utf8@@YAIAEAPEADPEAD@Z	; utf8::next<char * __ptr64>
	lea	rdx, QWORD PTR chr$[rbp-31]
	lea	rcx, QWORD PTR ptr$15[rbp-32]
	mov	DWORD PTR InvalidFileNameChars+4, eax

; 48   :             char* ptr = &chr;

	lea	rax, QWORD PTR chr$[rbp-32]
; File d:\home\src\trinity\projects\trinity.lib\trinity\io\path.h

; 301  :             };

	mov	BYTE PTR chr$[rbp-32], 62		; 0000003eH
; File d:\home\src\trinity\projects\trinity.lib\trinity\utf8\utf8.h

; 48   :             char* ptr = &chr;

	mov	QWORD PTR ptr$15[rbp-32], rax

; 50   :             this->codePoint = utf8::next(ptr, ptr_end);

	call	??$next@PEAD@utf8@@YAIAEAPEADPEAD@Z	; utf8::next<char * __ptr64>
	lea	rdx, QWORD PTR chr$[rbp-31]
	mov	DWORD PTR InvalidFileNameChars+8, eax

; 48   :             char* ptr = &chr;

	lea	rax, QWORD PTR chr$[rbp-32]

; 50   :             this->codePoint = utf8::next(ptr, ptr_end);

	lea	rcx, QWORD PTR ptr$14[rbp-32]
	mov	QWORD PTR ptr$14[rbp-32], rax
; File d:\home\src\trinity\projects\trinity.lib\trinity\io\path.h

; 301  :             };

	mov	BYTE PTR chr$[rbp-32], 124		; 0000007cH
; File d:\home\src\trinity\projects\trinity.lib\trinity\utf8\utf8.h

; 50   :             this->codePoint = utf8::next(ptr, ptr_end);

	call	??$next@PEAD@utf8@@YAIAEAPEADPEAD@Z	; utf8::next<char * __ptr64>
	mov	DWORD PTR InvalidFileNameChars+12, eax

; 48   :             char* ptr = &chr;

	lea	rax, QWORD PTR chr$[rbp-32]

; 50   :             this->codePoint = utf8::next(ptr, ptr_end);

	lea	rdx, QWORD PTR chr$[rbp-31]
	lea	rcx, QWORD PTR ptr$13[rbp-32]
; File d:\home\src\trinity\projects\trinity.lib\trinity\io\path.h

; 301  :             };

	mov	BYTE PTR chr$[rbp-32], 0
; File d:\home\src\trinity\projects\trinity.lib\trinity\utf8\utf8.h

; 48   :             char* ptr = &chr;

	mov	QWORD PTR ptr$13[rbp-32], rax

; 50   :             this->codePoint = utf8::next(ptr, ptr_end);

	call	??$next@PEAD@utf8@@YAIAEAPEADPEAD@Z	; utf8::next<char * __ptr64>
	lea	rdx, QWORD PTR chr$[rbp-31]
	lea	rcx, QWORD PTR ptr$12[rbp-32]
	mov	DWORD PTR InvalidFileNameChars+16, eax

; 48   :             char* ptr = &chr;

	lea	rax, QWORD PTR chr$[rbp-32]

; 44   :             this->codePoint = codePoint;

	mov	DWORD PTR InvalidFileNameChars+20, 1
	mov	DWORD PTR InvalidFileNameChars+24, 2
	mov	DWORD PTR InvalidFileNameChars+28, 3
	mov	DWORD PTR InvalidFileNameChars+32, 4

; 48   :             char* ptr = &chr;

	mov	QWORD PTR ptr$12[rbp-32], rax

; 44   :             this->codePoint = codePoint;

	mov	DWORD PTR InvalidFileNameChars+36, 5
	mov	DWORD PTR InvalidFileNameChars+40, 6
; File d:\home\src\trinity\projects\trinity.lib\trinity\io\path.h

; 301  :             };

	mov	BYTE PTR chr$[rbp-32], 7
; File d:\home\src\trinity\projects\trinity.lib\trinity\utf8\utf8.h

; 50   :             this->codePoint = utf8::next(ptr, ptr_end);

	call	??$next@PEAD@utf8@@YAIAEAPEADPEAD@Z	; utf8::next<char * __ptr64>
	lea	rdx, QWORD PTR chr$[rbp-31]
	mov	DWORD PTR InvalidFileNameChars+44, eax

; 48   :             char* ptr = &chr;

	lea	rax, QWORD PTR chr$[rbp-32]

; 50   :             this->codePoint = utf8::next(ptr, ptr_end);

	lea	rcx, QWORD PTR ptr$11[rbp-32]
	mov	QWORD PTR ptr$11[rbp-32], rax
; File d:\home\src\trinity\projects\trinity.lib\trinity\io\path.h

; 301  :             };

	mov	BYTE PTR chr$[rbp-32], 8
; File d:\home\src\trinity\projects\trinity.lib\trinity\utf8\utf8.h

; 50   :             this->codePoint = utf8::next(ptr, ptr_end);

	call	??$next@PEAD@utf8@@YAIAEAPEADPEAD@Z	; utf8::next<char * __ptr64>
	mov	DWORD PTR InvalidFileNameChars+48, eax

; 48   :             char* ptr = &chr;

	lea	rax, QWORD PTR chr$[rbp-32]

; 50   :             this->codePoint = utf8::next(ptr, ptr_end);

	lea	rdx, QWORD PTR chr$[rbp-31]
	lea	rcx, QWORD PTR ptr$10[rbp-32]
; File d:\home\src\trinity\projects\trinity.lib\trinity\io\path.h

; 301  :             };

	mov	BYTE PTR chr$[rbp-32], 9
; File d:\home\src\trinity\projects\trinity.lib\trinity\utf8\utf8.h

; 48   :             char* ptr = &chr;

	mov	QWORD PTR ptr$10[rbp-32], rax

; 50   :             this->codePoint = utf8::next(ptr, ptr_end);

	call	??$next@PEAD@utf8@@YAIAEAPEADPEAD@Z	; utf8::next<char * __ptr64>
	lea	rdx, QWORD PTR chr$[rbp-31]
	lea	rcx, QWORD PTR ptr$9[rbp-32]
	mov	DWORD PTR InvalidFileNameChars+52, eax

; 48   :             char* ptr = &chr;

	lea	rax, QWORD PTR chr$[rbp-32]
; File d:\home\src\trinity\projects\trinity.lib\trinity\io\path.h

; 301  :             };

	mov	BYTE PTR chr$[rbp-32], 10
; File d:\home\src\trinity\projects\trinity.lib\trinity\utf8\utf8.h

; 48   :             char* ptr = &chr;

	mov	QWORD PTR ptr$9[rbp-32], rax

; 50   :             this->codePoint = utf8::next(ptr, ptr_end);

	call	??$next@PEAD@utf8@@YAIAEAPEADPEAD@Z	; utf8::next<char * __ptr64>
	lea	rdx, QWORD PTR chr$[rbp-31]
	mov	DWORD PTR InvalidFileNameChars+56, eax

; 48   :             char* ptr = &chr;

	lea	rax, QWORD PTR chr$[rbp-32]

; 50   :             this->codePoint = utf8::next(ptr, ptr_end);

	lea	rcx, QWORD PTR ptr$8[rbp-32]
	mov	QWORD PTR ptr$8[rbp-32], rax
; File d:\home\src\trinity\projects\trinity.lib\trinity\io\path.h

; 301  :             };

	mov	BYTE PTR chr$[rbp-32], 11
; File d:\home\src\trinity\projects\trinity.lib\trinity\utf8\utf8.h

; 50   :             this->codePoint = utf8::next(ptr, ptr_end);

	call	??$next@PEAD@utf8@@YAIAEAPEADPEAD@Z	; utf8::next<char * __ptr64>
	mov	DWORD PTR InvalidFileNameChars+60, eax

; 48   :             char* ptr = &chr;

	lea	rax, QWORD PTR chr$[rbp-32]
; File d:\home\src\trinity\projects\trinity.lib\trinity\io\path.h

; 301  :             };

	mov	BYTE PTR chr$[rbp-32], 12
; File d:\home\src\trinity\projects\trinity.lib\trinity\utf8\utf8.h

; 50   :             this->codePoint = utf8::next(ptr, ptr_end);

	lea	rdx, QWORD PTR chr$[rbp-31]
	lea	rcx, QWORD PTR ptr$7[rbp-32]
	mov	QWORD PTR ptr$7[rbp-32], rax
	call	??$next@PEAD@utf8@@YAIAEAPEADPEAD@Z	; utf8::next<char * __ptr64>
	lea	rdx, QWORD PTR chr$[rbp-31]
	lea	rcx, QWORD PTR ptr$6[rbp-32]
	mov	DWORD PTR InvalidFileNameChars+64, eax

; 48   :             char* ptr = &chr;

	lea	rax, QWORD PTR chr$[rbp-32]
; File d:\home\src\trinity\projects\trinity.lib\trinity\io\path.h

; 301  :             };

	mov	BYTE PTR chr$[rbp-32], 13
; File d:\home\src\trinity\projects\trinity.lib\trinity\utf8\utf8.h

; 48   :             char* ptr = &chr;

	mov	QWORD PTR ptr$6[rbp-32], rax

; 50   :             this->codePoint = utf8::next(ptr, ptr_end);

	call	??$next@PEAD@utf8@@YAIAEAPEADPEAD@Z	; utf8::next<char * __ptr64>
; File d:\home\src\trinity\projects\trinity.lib\trinity\io\path.h

; 301  :             };

	mov	ecx, 14
; File d:\home\src\trinity\projects\trinity.lib\trinity\utf8\utf8.h

; 50   :             this->codePoint = utf8::next(ptr, ptr_end);

	mov	DWORD PTR InvalidFileNameChars+68, eax
; File d:\home\src\trinity\projects\trinity.lib\trinity\io\path.h

; 301  :             };

	lea	rax, OFFSET FLAT:InvalidFileNameChars+72
	lea	rdx, OFFSET FLAT:InvalidFileNameChars+144
	npad	4
$LL85@dynamic:
; File d:\home\src\trinity\projects\trinity.lib\trinity\utf8\utf8.h

; 44   :             this->codePoint = codePoint;

	mov	DWORD PTR [rax], ecx
	add	rax, 4
	inc	ecx
	cmp	rax, rdx
	jl	SHORT $LL85@dynamic

; 48   :             char* ptr = &chr;

	lea	rax, QWORD PTR chr$[rbp-32]

; 50   :             this->codePoint = utf8::next(ptr, ptr_end);

	lea	rdx, QWORD PTR chr$[rbp-31]
	lea	rcx, QWORD PTR ptr$5[rbp-32]
	mov	QWORD PTR ptr$5[rbp-32], rax
; File d:\home\src\trinity\projects\trinity.lib\trinity\io\path.h

; 301  :             };

	mov	BYTE PTR chr$[rbp-32], 58		; 0000003aH
; File d:\home\src\trinity\projects\trinity.lib\trinity\utf8\utf8.h

; 50   :             this->codePoint = utf8::next(ptr, ptr_end);

	call	??$next@PEAD@utf8@@YAIAEAPEADPEAD@Z	; utf8::next<char * __ptr64>
	mov	DWORD PTR InvalidFileNameChars+144, eax

; 48   :             char* ptr = &chr;

	lea	rax, QWORD PTR chr$[rbp-32]

; 50   :             this->codePoint = utf8::next(ptr, ptr_end);

	lea	rdx, QWORD PTR chr$[rbp-31]
	lea	rcx, QWORD PTR ptr$4[rbp-32]
; File d:\home\src\trinity\projects\trinity.lib\trinity\io\path.h

; 301  :             };

	mov	BYTE PTR chr$[rbp-32], 42		; 0000002aH
; File d:\home\src\trinity\projects\trinity.lib\trinity\utf8\utf8.h

; 48   :             char* ptr = &chr;

	mov	QWORD PTR ptr$4[rbp-32], rax

; 50   :             this->codePoint = utf8::next(ptr, ptr_end);

	call	??$next@PEAD@utf8@@YAIAEAPEADPEAD@Z	; utf8::next<char * __ptr64>
	lea	rdx, QWORD PTR chr$[rbp-31]
	lea	rcx, QWORD PTR ptr$3[rbp-32]
	mov	DWORD PTR InvalidFileNameChars+148, eax

; 48   :             char* ptr = &chr;

	lea	rax, QWORD PTR chr$[rbp-32]
; File d:\home\src\trinity\projects\trinity.lib\trinity\io\path.h

; 301  :             };

	mov	BYTE PTR chr$[rbp-32], 63		; 0000003fH
; File d:\home\src\trinity\projects\trinity.lib\trinity\utf8\utf8.h

; 48   :             char* ptr = &chr;

	mov	QWORD PTR ptr$3[rbp-32], rax

; 50   :             this->codePoint = utf8::next(ptr, ptr_end);

	call	??$next@PEAD@utf8@@YAIAEAPEADPEAD@Z	; utf8::next<char * __ptr64>
	lea	rdx, QWORD PTR chr$[rbp-31]
	mov	DWORD PTR InvalidFileNameChars+152, eax

; 48   :             char* ptr = &chr;

	lea	rax, QWORD PTR chr$[rbp-32]

; 50   :             this->codePoint = utf8::next(ptr, ptr_end);

	lea	rcx, QWORD PTR ptr$2[rbp-32]
	mov	QWORD PTR ptr$2[rbp-32], rax
; File d:\home\src\trinity\projects\trinity.lib\trinity\io\path.h

; 301  :             };

	mov	BYTE PTR chr$[rbp-32], 92		; 0000005cH
; File d:\home\src\trinity\projects\trinity.lib\trinity\utf8\utf8.h

; 50   :             this->codePoint = utf8::next(ptr, ptr_end);

	call	??$next@PEAD@utf8@@YAIAEAPEADPEAD@Z	; utf8::next<char * __ptr64>
	mov	DWORD PTR InvalidFileNameChars+156, eax

; 48   :             char* ptr = &chr;

	lea	rax, QWORD PTR chr$[rbp-32]

; 50   :             this->codePoint = utf8::next(ptr, ptr_end);

	lea	rdx, QWORD PTR chr$[rbp-31]
	lea	rcx, QWORD PTR ptr$1[rbp-32]
; File d:\home\src\trinity\projects\trinity.lib\trinity\io\path.h

; 301  :             };

	mov	BYTE PTR chr$[rbp-32], 47		; 0000002fH
; File d:\home\src\trinity\projects\trinity.lib\trinity\utf8\utf8.h

; 48   :             char* ptr = &chr;

	mov	QWORD PTR ptr$1[rbp-32], rax

; 50   :             this->codePoint = utf8::next(ptr, ptr_end);

	call	??$next@PEAD@utf8@@YAIAEAPEADPEAD@Z	; utf8::next<char * __ptr64>
	mov	DWORD PTR InvalidFileNameChars+160, eax
; File d:\home\src\trinity\projects\trinity.lib\trinity\io\path.h

; 301  :             };

	add	rsp, 32					; 00000020H
	pop	rbp
	ret	0
??__EInvalidFileNameChars@Path@IO@Trinity@@YAXXZ ENDP	; Trinity::IO::Path::`dynamic initializer for 'InvalidFileNameChars''
text$di	ENDS
; Function compile flags: /Ogtpy
; File d:\home\src\trinity\projects\trinity.c\src\network\trinitysocketserver.threading.cpp
; File d:\home\src\trinity\projects\trinity.c\src\runtime\transition.h
; File d:\home\src\trinity\projects\trinity.c\src\network\trinitysocketserver.threading.cpp
; File d:\home\src\trinity\projects\trinity.c\src\runtime\transition.h
; File d:\home\src\trinity\projects\trinity.c\src\network\trinitysocketserver.threading.cpp
; File d:\home\src\trinity\projects\trinity.c\src\network\trinitysocketserver.cpp
; File d:\home\src\trinity\projects\trinity.c\src\network\trinitysocketserver.contextobject.cpp
; File d:\home\src\trinity\projects\trinity.c\src\network\trinitysocketserver.cpp
; File d:\home\src\trinity\projects\trinity.c\src\network\trinitysocketserver.contextobject.cpp
; File d:\home\src\trinity\projects\trinity.c\src\network\trinitysocketserver.threading.cpp
; File d:\home\src\trinity\projects\trinity.c\src\runtime\transition.h
; File d:\home\src\trinity\projects\trinity.c\src\network\trinitysocketserver.threading.cpp
; File d:\home\src\trinity\projects\trinity.c\src\runtime\transition.h
; File d:\home\src\trinity\projects\trinity.c\src\network\trinitysocketserver.threading.cpp
;	COMDAT ?WorkerThreadProc@Network@Trinity@@YAKPEAX@Z
_TEXT	SEGMENT
GCX$1 = 48
pOverlapped$2 = 72
frame$3 = 80
lpParameter$ = 384
_linger$4 = 392
bytesTransferred$5 = 400
pContext$6 = 408
?WorkerThreadProc@Network@Trinity@@YAKPEAX@Z PROC	; Trinity::Network::WorkerThreadProc, COMDAT

; 13   :         {

$LN50:
	mov	QWORD PTR [rsp+8], rbx
	push	rbp
	push	rsi
	push	rdi
	push	r14
	push	r15
	lea	rbp, QWORD PTR [rsp-80]
	sub	rsp, 336				; 00000150H
	xor	r14d, r14d
	npad	5
$LL4@WorkerThre:

; 42   :             TRINITY_INTEROP_ENTER_UNMANAGED();

	cmp	BYTE PTR ?__transition_enabled@@3_NA, r14b ; __transition_enabled
; File d:\home\src\trinity\projects\trinity.c\src\runtime\transition.h

; 26   : 		FrameStart[0] = vtable;

	mov	rax, QWORD PTR ?vtable@@3_KA		; vtable

; 27   : 		FrameStart[1] = 0;
; 28   : 		FrameStart[2] = 0;
; 29   : 		FrameStart[3] = 0;
; 30   : 		FrameStart[4] = 0;
; 31   : 		FrameStart[5] = func_addr;
; 32   : 	}
; 33   : 	size_t cookie = 0;

	mov	QWORD PTR frame$3[rsp], r14
	mov	QWORD PTR frame$3[rsp+8], rax
	mov	QWORD PTR frame$3[rsp+16], r14
	mov	QWORD PTR frame$3[rsp+24], r14
	mov	QWORD PTR frame$3[rsp+32], r14
	mov	QWORD PTR frame$3[rsp+40], r14
	mov	QWORD PTR frame$3[rbp-208], r14
; File d:\home\src\trinity\projects\trinity.c\src\network\trinitysocketserver.threading.cpp

; 42   :             TRINITY_INTEROP_ENTER_UNMANAGED();

	mov	QWORD PTR GCX$1[rsp], r14
	mov	QWORD PTR GCX$1[rsp+8], r14
	mov	QWORD PTR GCX$1[rsp+16], r14
	je	SHORT $LN20@WorkerThre
; File d:\home\src\trinity\projects\trinity.c\src\runtime\transition.h

; 55   : 	clr_LazyMachStateCaptureState(frame.MachState);

	lea	rcx, QWORD PTR frame$3[rbp-200]
	call	QWORD PTR ?LazyMachStateCaptureState@@3_KA ; LazyMachStateCaptureState

; 61   : }
; 62   : inline void ConstructFrame(HelperMethodFrameWithCookie& frame)
; 63   : {
; 64   : 	FUNC clr_HelperMethodFrame_Push = (FUNC)HelperFramePush;
; 65   : 	clr_HelperMethodFrame_Push(frame.FrameStart);

	lea	rcx, QWORD PTR frame$3[rsp+8]
	call	QWORD PTR ?HelperFramePush@@3_KA	; HelperFramePush

; 34   : 	uint64_t FrameStart[6];
; 35   : 	uint64_t MachState[24];
; 36   : };
; 37   : typedef void(*FUNC)(uint64_t*);
; 38   : 
; 39   : inline void SetPreemptive(uint64_t* gcPreemp)
; 40   : {
; 41   : 	FUNC gcPreempCtor = (FUNC)GCPreempCtor;
; 42   : 	gcPreempCtor(gcPreemp);

	lea	rcx, QWORD PTR GCX$1[rsp]
	call	QWORD PTR ?GCPreempCtor@@3_KA		; GCPreempCtor
$LN20@WorkerThre:
; File d:\home\src\trinity\projects\trinity.c\src\network\trinitysocketserver.threading.cpp

; 46   :             if (FALSE == GetQueuedCompletionStatus(hIocp, &bytesTransferred, (PULONG_PTR)&pContext, (LPOVERLAPPED *)&pOverlapped, INFINITE))

	mov	rcx, QWORD PTR ?hIocp@Network@Trinity@@3PEAXEA ; Trinity::Network::hIocp
	lea	r9, QWORD PTR pOverlapped$2[rsp]
	lea	r8, QWORD PTR pContext$6[rbp-256]
	lea	rdx, QWORD PTR bytesTransferred$5[rbp-256]
	mov	DWORD PTR [rsp+32], -1			; ffffffffH
	call	QWORD PTR __imp_GetQueuedCompletionStatus

; 47   :             {
; 48   :                 //Diagnostics::WriteLine(Diagnostics::LogLevel::Error, "Errors occur during GetQueuedCompletionStatus with error code: {0}.", GetLastError());
; 49   : 
; 50   :                 if (pContext != NULL)

	mov	rbx, QWORD PTR pContext$6[rbp-256]
	test	eax, eax
	jne	$LN10@WorkerThre
	test	rbx, rbx
	je	SHORT $LN26@WorkerThre
; File d:\home\src\trinity\projects\trinity.c\src\network\trinitysocketserver.cpp

; 132  :                 setsockopt(pContext->socket, SOL_SOCKET, SO_LINGER, (char*)&_linger, sizeof(_linger));

	mov	rcx, QWORD PTR [rbx+8224]
	lea	r9, QWORD PTR _linger$4[rbp-256]
	mov	edx, 65535				; 0000ffffH
	mov	r8d, 128				; 00000080H
	mov	DWORD PTR _linger$4[rbp-256], 1
	mov	DWORD PTR [rsp+32], 4
	call	QWORD PTR __imp_setsockopt

; 133  :             }
; 134  : 
; 135  :             // closesocket function implicitly causes a shutdown sequence
; 136  :             closesocket(pContext->socket);

	mov	rcx, QWORD PTR [rbx+8224]
	call	QWORD PTR __imp_closesocket
; File d:\home\src\trinity\projects\trinity.c\src\network\trinitysocketserver.contextobject.cpp

; 25   :             FreeOverlappedOpStruct(p->pOverlapped);

	mov	rcx, QWORD PTR [rbx+8240]
; File d:\home\src\trinity\projects\trinity.c\src\network\trinitysocketserver.cpp

; 137  :             pContext->socket = INVALID_SOCKET;

	mov	QWORD PTR [rbx+8224], -1
; File d:\home\src\trinity\projects\trinity.c\src\network\trinitysocketserver.contextobject.cpp

; 19   :             if (NULL != p)

	test	rcx, rcx
	je	SHORT $LN28@WorkerThre

; 20   :                 free(p);

	call	free
$LN28@WorkerThre:

; 26   : 
; 27   :             if (NULL != p->Message)

	mov	rcx, QWORD PTR [rbx+8192]
	test	rcx, rcx
	je	SHORT $LN25@WorkerThre

; 28   :             {
; 29   :                 free(p->Message);

	call	free
$LN25@WorkerThre:

; 30   :             }
; 31   : 
; 32   :             free(p);

	mov	rcx, rbx
	call	free
$LN26@WorkerThre:
; File d:\home\src\trinity\projects\trinity.c\src\network\trinitysocketserver.threading.cpp

; 54   :                 TRINITY_INTEROP_LEAVE_UNMANAGED();

	cmp	BYTE PTR ?__transition_enabled@@3_NA, r14b ; __transition_enabled
	je	$LL4@WorkerThre
; File d:\home\src\trinity\projects\trinity.c\src\runtime\transition.h

; 48   : 	gcCoopCtor(gcCoop);

	lea	rcx, QWORD PTR GCX$1[rsp]
	call	QWORD PTR ?GCCoopCtor@@3_KA		; GCCoopCtor

; 56   : }
; 57   : inline void RestoreState(HelperMethodFrameWithCookie& frame)
; 58   : {
; 59   : 	FUNC clr_HelperMethodFrameRestoreState = (FUNC)FrameRestore;
; 60   : 	clr_HelperMethodFrameRestoreState(frame.MachState);

	lea	rcx, QWORD PTR frame$3[rbp-200]
	call	QWORD PTR ?FrameRestore@@3_KA		; FrameRestore

; 66   : }
; 67   : inline void DeconstructFrame(HelperMethodFrameWithCookie& frame)
; 68   : {
; 69   : 	FUNC clr_HelperMethodFrame_Pop = (FUNC)HelperFramePop;
; 70   : 	clr_HelperMethodFrame_Pop(frame.FrameStart);

	lea	rcx, QWORD PTR frame$3[rsp+8]
	call	QWORD PTR ?HelperFramePop@@3_KA		; HelperFramePop
; File d:\home\src\trinity\projects\trinity.c\src\network\trinitysocketserver.threading.cpp

; 55   :                 return false;

	jmp	$LL4@WorkerThre
$LN10@WorkerThre:

; 56   :             }
; 57   : 
; 58   :             _pContext = pContext;
; 59   :             OverlappedOpStruct* pOverlappedStruct = (OverlappedOpStruct*)pOverlapped;
; 60   :             _opType = pOverlappedStruct->OpType;
; 61   :             _bytesTransferred = bytesTransferred;
; 62   :             TRINITY_INTEROP_LEAVE_UNMANAGED();

	cmp	BYTE PTR ?__transition_enabled@@3_NA, r14b ; __transition_enabled
	mov	rax, QWORD PTR pOverlapped$2[rsp]
	mov	esi, DWORD PTR bytesTransferred$5[rbp-256]
	mov	edi, DWORD PTR [rax+32]
	je	SHORT $LN41@WorkerThre
; File d:\home\src\trinity\projects\trinity.c\src\runtime\transition.h

; 48   : 	gcCoopCtor(gcCoop);

	lea	rcx, QWORD PTR GCX$1[rsp]
	call	QWORD PTR ?GCCoopCtor@@3_KA		; GCCoopCtor

; 56   : }
; 57   : inline void RestoreState(HelperMethodFrameWithCookie& frame)
; 58   : {
; 59   : 	FUNC clr_HelperMethodFrameRestoreState = (FUNC)FrameRestore;
; 60   : 	clr_HelperMethodFrameRestoreState(frame.MachState);

	lea	rcx, QWORD PTR frame$3[rbp-200]
	call	QWORD PTR ?FrameRestore@@3_KA		; FrameRestore

; 66   : }
; 67   : inline void DeconstructFrame(HelperMethodFrameWithCookie& frame)
; 68   : {
; 69   : 	FUNC clr_HelperMethodFrame_Pop = (FUNC)HelperFramePop;
; 70   : 	clr_HelperMethodFrame_Pop(frame.FrameStart);

	lea	rcx, QWORD PTR frame$3[rsp+8]
	call	QWORD PTR ?HelperFramePop@@3_KA		; HelperFramePop
$LN41@WorkerThre:
; File d:\home\src\trinity\projects\trinity.c\src\network\trinitysocketserver.threading.cpp

; 21   :                     if (ProcessIOCompletion(_pContext, opType, bytesTransferred))

	mov	r8d, esi
	mov	edx, edi
	mov	rcx, rbx
	call	?ProcessIOCompletion@Network@Trinity@@YA_NPEAXII@Z ; Trinity::Network::ProcessIOCompletion
	test	al, al
	je	$LL4@WorkerThre

; 22   :                     {
; 23   :                         PerSocketContextObject* pContext = (PerSocketContextObject*)_pContext;
; 24   :                         HandleMessage(&pContext->SendRecvBuff);

	lea	rcx, QWORD PTR [rbx+8192]
	call	?HandleMessage@Network@Trinity@@YAXPEAUMessageBuff@12@@Z ; Trinity::Network::HandleMessage

; 25   :                         SendResponse(pContext); // Send response back to the client

	mov	rcx, rbx
	call	?SendResponse@Network@Trinity@@YAXPEAX@Z ; Trinity::Network::SendResponse

; 26   :                     }
; 27   :                 }
; 28   :             }

	jmp	$LL4@WorkerThre
?WorkerThreadProc@Network@Trinity@@YAKPEAX@Z ENDP	; Trinity::Network::WorkerThreadProc
_TEXT	ENDS
; Function compile flags: /Ogtpy
; File d:\home\src\trinity\projects\trinity.c\src\network\trinitysocketserver.threading.cpp
; File d:\home\src\trinity\projects\trinity.c\src\runtime\transition.h
; File d:\home\src\trinity\projects\trinity.c\src\network\trinitysocketserver.threading.cpp
; File d:\home\src\trinity\projects\trinity.c\src\runtime\transition.h
; File d:\home\src\trinity\projects\trinity.c\src\network\trinitysocketserver.threading.cpp
; File d:\home\src\trinity\projects\trinity.c\src\runtime\transition.h
; File d:\home\src\trinity\projects\trinity.c\src\network\trinitysocketserver.threading.cpp
; File d:\home\src\trinity\projects\trinity.c\src\runtime\transition.h
; File d:\home\src\trinity\projects\trinity.c\src\network\trinitysocketserver.threading.cpp
;	COMDAT ?SendResponse@Network@Trinity@@YAXPEAX@Z
_TEXT	SEGMENT
GCX$ = 32
frame$ = 64
_pContext$ = 336
?SendResponse@Network@Trinity@@YAXPEAX@Z PROC		; Trinity::Network::SendResponse, COMDAT

; 32   :         {

$LN20:
	mov	QWORD PTR [rsp+8], rbx
	push	rdi
	sub	rsp, 320				; 00000140H
; File d:\home\src\trinity\projects\trinity.c\src\runtime\transition.h

; 26   : 		FrameStart[0] = vtable;

	mov	rax, QWORD PTR ?vtable@@3_KA		; vtable

; 27   : 		FrameStart[1] = 0;
; 28   : 		FrameStart[2] = 0;
; 29   : 		FrameStart[3] = 0;
; 30   : 		FrameStart[4] = 0;
; 31   : 		FrameStart[5] = func_addr;
; 32   : 	}
; 33   : 	size_t cookie = 0;

	xor	edi, edi
; File d:\home\src\trinity\projects\trinity.c\src\network\trinitysocketserver.threading.cpp

; 32   :         {

	mov	rbx, rcx

; 33   :             TRINITY_INTEROP_ENTER_UNMANAGED();

	cmp	BYTE PTR ?__transition_enabled@@3_NA, dil ; __transition_enabled
; File d:\home\src\trinity\projects\trinity.c\src\runtime\transition.h

; 26   : 		FrameStart[0] = vtable;

	mov	QWORD PTR frame$[rsp+8], rax

; 27   : 		FrameStart[1] = 0;
; 28   : 		FrameStart[2] = 0;
; 29   : 		FrameStart[3] = 0;
; 30   : 		FrameStart[4] = 0;
; 31   : 		FrameStart[5] = func_addr;
; 32   : 	}
; 33   : 	size_t cookie = 0;

	mov	QWORD PTR frame$[rsp], rdi
	mov	QWORD PTR frame$[rsp+16], rdi
	mov	QWORD PTR frame$[rsp+24], rdi
	mov	QWORD PTR frame$[rsp+32], rdi
	mov	QWORD PTR frame$[rsp+40], rdi
	mov	QWORD PTR frame$[rsp+48], rdi
; File d:\home\src\trinity\projects\trinity.c\src\network\trinitysocketserver.threading.cpp

; 33   :             TRINITY_INTEROP_ENTER_UNMANAGED();

	mov	QWORD PTR GCX$[rsp], rdi
	mov	QWORD PTR GCX$[rsp+8], rdi
	mov	QWORD PTR GCX$[rsp+16], rdi
	je	SHORT $LN11@SendRespon
; File d:\home\src\trinity\projects\trinity.c\src\runtime\transition.h

; 55   : 	clr_LazyMachStateCaptureState(frame.MachState);

	lea	rcx, QWORD PTR frame$[rsp+56]
	call	QWORD PTR ?LazyMachStateCaptureState@@3_KA ; LazyMachStateCaptureState

; 61   : }
; 62   : inline void ConstructFrame(HelperMethodFrameWithCookie& frame)
; 63   : {
; 64   : 	FUNC clr_HelperMethodFrame_Push = (FUNC)HelperFramePush;
; 65   : 	clr_HelperMethodFrame_Push(frame.FrameStart);

	lea	rcx, QWORD PTR frame$[rsp+8]
	call	QWORD PTR ?HelperFramePush@@3_KA	; HelperFramePush

; 34   : 	uint64_t FrameStart[6];
; 35   : 	uint64_t MachState[24];
; 36   : };
; 37   : typedef void(*FUNC)(uint64_t*);
; 38   : 
; 39   : inline void SetPreemptive(uint64_t* gcPreemp)
; 40   : {
; 41   : 	FUNC gcPreempCtor = (FUNC)GCPreempCtor;
; 42   : 	gcPreempCtor(gcPreemp);

	lea	rcx, QWORD PTR GCX$[rsp]
	call	QWORD PTR ?GCPreempCtor@@3_KA		; GCPreempCtor
$LN11@SendRespon:
; File d:\home\src\trinity\projects\trinity.c\src\network\trinitysocketserver.threading.cpp

; 36   :             SendAsync(pContext);

	mov	rcx, rbx
	mov	DWORD PTR [rbx+8236], edi
	call	?SendAsync@Network@Trinity@@YAXPEAUPerSocketContextObject@12@@Z ; Trinity::Network::SendAsync

; 37   :             TRINITY_INTEROP_LEAVE_UNMANAGED();

	cmp	BYTE PTR ?__transition_enabled@@3_NA, dil ; __transition_enabled
	je	SHORT $LN17@SendRespon
; File d:\home\src\trinity\projects\trinity.c\src\runtime\transition.h

; 48   : 	gcCoopCtor(gcCoop);

	lea	rcx, QWORD PTR GCX$[rsp]
	call	QWORD PTR ?GCCoopCtor@@3_KA		; GCCoopCtor

; 56   : }
; 57   : inline void RestoreState(HelperMethodFrameWithCookie& frame)
; 58   : {
; 59   : 	FUNC clr_HelperMethodFrameRestoreState = (FUNC)FrameRestore;
; 60   : 	clr_HelperMethodFrameRestoreState(frame.MachState);

	lea	rcx, QWORD PTR frame$[rsp+56]
	call	QWORD PTR ?FrameRestore@@3_KA		; FrameRestore

; 66   : }
; 67   : inline void DeconstructFrame(HelperMethodFrameWithCookie& frame)
; 68   : {
; 69   : 	FUNC clr_HelperMethodFrame_Pop = (FUNC)HelperFramePop;
; 70   : 	clr_HelperMethodFrame_Pop(frame.FrameStart);

	lea	rcx, QWORD PTR frame$[rsp+8]
	call	QWORD PTR ?HelperFramePop@@3_KA		; HelperFramePop
$LN17@SendRespon:
; File d:\home\src\trinity\projects\trinity.c\src\network\trinitysocketserver.threading.cpp

; 38   :         }

	mov	rbx, QWORD PTR [rsp+336]
	add	rsp, 320				; 00000140H
	pop	rdi
	ret	0
?SendResponse@Network@Trinity@@YAXPEAX@Z ENDP		; Trinity::Network::SendResponse
_TEXT	ENDS
; Function compile flags: /Ogtpy
; File d:\home\src\trinity\projects\trinity.c\src\network\trinitysocketserver.threading.cpp
; File d:\home\src\trinity\projects\trinity.c\src\runtime\transition.h
; File d:\home\src\trinity\projects\trinity.c\src\network\trinitysocketserver.threading.cpp
; File d:\home\src\trinity\projects\trinity.c\src\runtime\transition.h
; File d:\home\src\trinity\projects\trinity.c\src\network\trinitysocketserver.threading.cpp
; File d:\home\src\trinity\projects\trinity.c\src\runtime\transition.h
; File d:\home\src\trinity\projects\trinity.c\src\network\trinitysocketserver.threading.cpp
; File d:\home\src\trinity\projects\trinity.c\src\runtime\transition.h
; File d:\home\src\trinity\projects\trinity.c\src\network\trinitysocketserver.threading.cpp
; File d:\home\src\trinity\projects\trinity.c\src\runtime\transition.h
; File d:\home\src\trinity\projects\trinity.c\src\network\trinitysocketserver.threading.cpp
; File d:\home\src\trinity\projects\trinity.c\src\runtime\transition.h
; File d:\home\src\trinity\projects\trinity.c\src\network\trinitysocketserver.threading.cpp
;	COMDAT ?AwaitIOCompletion@Network@Trinity@@YA_NAEAPEAXAEAI1@Z
_TEXT	SEGMENT
pContext$ = 48
pOverlapped$ = 56
GCX$ = 64
frame$ = 96
_pContext$ = 368
_opType$ = 376
_bytesTransferred$ = 384
bytesTransferred$ = 392
?AwaitIOCompletion@Network@Trinity@@YA_NAEAPEAXAEAI1@Z PROC ; Trinity::Network::AwaitIOCompletion, COMDAT

; 41   :         {

$LN29:
	mov	QWORD PTR [rsp+8], rbx
	mov	QWORD PTR [rsp+16], rsi
	mov	QWORD PTR [rsp+24], rdi
	push	rbp
	lea	rbp, QWORD PTR [rsp-96]
	sub	rsp, 352				; 00000160H
; File d:\home\src\trinity\projects\trinity.c\src\runtime\transition.h

; 26   : 		FrameStart[0] = vtable;

	mov	rax, QWORD PTR ?vtable@@3_KA		; vtable
; File d:\home\src\trinity\projects\trinity.c\src\network\trinitysocketserver.threading.cpp

; 41   :         {

	mov	rsi, rcx
; File d:\home\src\trinity\projects\trinity.c\src\runtime\transition.h

; 33   : 	size_t cookie = 0;

	xor	ecx, ecx
; File d:\home\src\trinity\projects\trinity.c\src\network\trinitysocketserver.threading.cpp

; 42   :             TRINITY_INTEROP_ENTER_UNMANAGED();

	cmp	BYTE PTR ?__transition_enabled@@3_NA, cl ; __transition_enabled
	mov	rbx, r8
	mov	rdi, rdx
; File d:\home\src\trinity\projects\trinity.c\src\runtime\transition.h

; 26   : 		FrameStart[0] = vtable;

	mov	QWORD PTR frame$[rsp+8], rax

; 33   : 	size_t cookie = 0;

	mov	QWORD PTR frame$[rsp], rcx
	mov	QWORD PTR frame$[rsp+16], rcx
	mov	QWORD PTR frame$[rsp+24], rcx
	mov	QWORD PTR frame$[rbp-224], rcx
	mov	QWORD PTR frame$[rbp-216], rcx
	mov	QWORD PTR frame$[rbp-208], rcx
; File d:\home\src\trinity\projects\trinity.c\src\network\trinitysocketserver.threading.cpp

; 42   :             TRINITY_INTEROP_ENTER_UNMANAGED();

	mov	QWORD PTR GCX$[rsp], rcx
	mov	QWORD PTR GCX$[rsp+8], rcx
	mov	QWORD PTR GCX$[rsp+16], rcx
	je	SHORT $LN14@AwaitIOCom
; File d:\home\src\trinity\projects\trinity.c\src\runtime\transition.h

; 55   : 	clr_LazyMachStateCaptureState(frame.MachState);

	lea	rcx, QWORD PTR frame$[rbp-200]
	call	QWORD PTR ?LazyMachStateCaptureState@@3_KA ; LazyMachStateCaptureState

; 61   : }
; 62   : inline void ConstructFrame(HelperMethodFrameWithCookie& frame)
; 63   : {
; 64   : 	FUNC clr_HelperMethodFrame_Push = (FUNC)HelperFramePush;
; 65   : 	clr_HelperMethodFrame_Push(frame.FrameStart);

	lea	rcx, QWORD PTR frame$[rsp+8]
	call	QWORD PTR ?HelperFramePush@@3_KA	; HelperFramePush

; 34   : 	uint64_t FrameStart[6];
; 35   : 	uint64_t MachState[24];
; 36   : };
; 37   : typedef void(*FUNC)(uint64_t*);
; 38   : 
; 39   : inline void SetPreemptive(uint64_t* gcPreemp)
; 40   : {
; 41   : 	FUNC gcPreempCtor = (FUNC)GCPreempCtor;
; 42   : 	gcPreempCtor(gcPreemp);

	lea	rcx, QWORD PTR GCX$[rsp]
	call	QWORD PTR ?GCPreempCtor@@3_KA		; GCPreempCtor
$LN14@AwaitIOCom:
; File d:\home\src\trinity\projects\trinity.c\src\network\trinitysocketserver.threading.cpp

; 46   :             if (FALSE == GetQueuedCompletionStatus(hIocp, &bytesTransferred, (PULONG_PTR)&pContext, (LPOVERLAPPED *)&pOverlapped, INFINITE))

	mov	rcx, QWORD PTR ?hIocp@Network@Trinity@@3PEAXEA ; Trinity::Network::hIocp
	lea	r9, QWORD PTR pOverlapped$[rsp]
	lea	r8, QWORD PTR pContext$[rsp]
	lea	rdx, QWORD PTR bytesTransferred$[rbp-256]
	mov	DWORD PTR [rsp+32], -1			; ffffffffH
	call	QWORD PTR __imp_GetQueuedCompletionStatus
	test	eax, eax
	jne	SHORT $LN4@AwaitIOCom

; 47   :             {
; 48   :                 //Diagnostics::WriteLine(Diagnostics::LogLevel::Error, "Errors occur during GetQueuedCompletionStatus with error code: {0}.", GetLastError());
; 49   : 
; 50   :                 if (pContext != NULL)

	mov	rcx, QWORD PTR pContext$[rsp]
	test	rcx, rcx
	je	SHORT $LN3@AwaitIOCom

; 51   :                 {
; 52   :                     CloseClientConnection(pContext, false);

	call	?CloseClientConnection@Network@Trinity@@YAXPEAUPerSocketContextObject@12@_N@Z ; Trinity::Network::CloseClientConnection
$LN3@AwaitIOCom:

; 53   :                 }
; 54   :                 TRINITY_INTEROP_LEAVE_UNMANAGED();

	cmp	BYTE PTR ?__transition_enabled@@3_NA, 0	; __transition_enabled
	je	SHORT $LN20@AwaitIOCom
; File d:\home\src\trinity\projects\trinity.c\src\runtime\transition.h

; 48   : 	gcCoopCtor(gcCoop);

	lea	rcx, QWORD PTR GCX$[rsp]
	call	QWORD PTR ?GCCoopCtor@@3_KA		; GCCoopCtor

; 56   : }
; 57   : inline void RestoreState(HelperMethodFrameWithCookie& frame)
; 58   : {
; 59   : 	FUNC clr_HelperMethodFrameRestoreState = (FUNC)FrameRestore;
; 60   : 	clr_HelperMethodFrameRestoreState(frame.MachState);

	lea	rcx, QWORD PTR frame$[rbp-200]
	call	QWORD PTR ?FrameRestore@@3_KA		; FrameRestore

; 66   : }
; 67   : inline void DeconstructFrame(HelperMethodFrameWithCookie& frame)
; 68   : {
; 69   : 	FUNC clr_HelperMethodFrame_Pop = (FUNC)HelperFramePop;
; 70   : 	clr_HelperMethodFrame_Pop(frame.FrameStart);

	lea	rcx, QWORD PTR frame$[rsp+8]
	call	QWORD PTR ?HelperFramePop@@3_KA		; HelperFramePop
$LN20@AwaitIOCom:
; File d:\home\src\trinity\projects\trinity.c\src\network\trinitysocketserver.threading.cpp

; 55   :                 return false;

	xor	al, al
	jmp	SHORT $LN6@AwaitIOCom
$LN4@AwaitIOCom:

; 56   :             }
; 57   : 
; 58   :             _pContext = pContext;
; 59   :             OverlappedOpStruct* pOverlappedStruct = (OverlappedOpStruct*)pOverlapped;
; 60   :             _opType = pOverlappedStruct->OpType;
; 61   :             _bytesTransferred = bytesTransferred;
; 62   :             TRINITY_INTEROP_LEAVE_UNMANAGED();

	cmp	BYTE PTR ?__transition_enabled@@3_NA, 0	; __transition_enabled
	mov	rax, QWORD PTR pContext$[rsp]
	mov	QWORD PTR [rsi], rax
	mov	rax, QWORD PTR pOverlapped$[rsp]
	mov	ecx, DWORD PTR [rax+32]
	mov	eax, DWORD PTR bytesTransferred$[rbp-256]
	mov	DWORD PTR [rdi], ecx
	mov	DWORD PTR [rbx], eax
	je	SHORT $LN26@AwaitIOCom
; File d:\home\src\trinity\projects\trinity.c\src\runtime\transition.h

; 48   : 	gcCoopCtor(gcCoop);

	lea	rcx, QWORD PTR GCX$[rsp]
	call	QWORD PTR ?GCCoopCtor@@3_KA		; GCCoopCtor

; 56   : }
; 57   : inline void RestoreState(HelperMethodFrameWithCookie& frame)
; 58   : {
; 59   : 	FUNC clr_HelperMethodFrameRestoreState = (FUNC)FrameRestore;
; 60   : 	clr_HelperMethodFrameRestoreState(frame.MachState);

	lea	rcx, QWORD PTR frame$[rbp-200]
	call	QWORD PTR ?FrameRestore@@3_KA		; FrameRestore

; 66   : }
; 67   : inline void DeconstructFrame(HelperMethodFrameWithCookie& frame)
; 68   : {
; 69   : 	FUNC clr_HelperMethodFrame_Pop = (FUNC)HelperFramePop;
; 70   : 	clr_HelperMethodFrame_Pop(frame.FrameStart);

	lea	rcx, QWORD PTR frame$[rsp+8]
	call	QWORD PTR ?HelperFramePop@@3_KA		; HelperFramePop
$LN26@AwaitIOCom:
; File d:\home\src\trinity\projects\trinity.c\src\network\trinitysocketserver.threading.cpp

; 63   :             return true;

	mov	al, 1
$LN6@AwaitIOCom:

; 64   :         }

	lea	r11, QWORD PTR [rsp+352]
	mov	rbx, QWORD PTR [r11+16]
	mov	rsi, QWORD PTR [r11+24]
	mov	rdi, QWORD PTR [r11+32]
	mov	rsp, r11
	pop	rbp
	ret	0
?AwaitIOCompletion@Network@Trinity@@YA_NAEAPEAXAEAI1@Z ENDP ; Trinity::Network::AwaitIOCompletion
_TEXT	ENDS
; Function compile flags: /Ogtpy
; File d:\home\src\trinity\projects\trinity.c\src\network\trinitysocketserver.threading.cpp
; File d:\home\src\trinity\projects\trinity.c\src\runtime\transition.h
; File d:\home\src\trinity\projects\trinity.c\src\network\trinitysocketserver.threading.cpp
; File d:\home\src\trinity\projects\trinity.c\src\runtime\transition.h
; File d:\home\src\trinity\projects\trinity.c\src\network\trinitysocketserver.threading.cpp
; File d:\home\src\trinity\projects\trinity.c\src\runtime\transition.h
; File d:\home\src\trinity\projects\trinity.c\src\network\trinitysocketserver.threading.cpp
; File d:\home\src\trinity\projects\trinity.c\src\network\trinitysocketserver.send.cpp
; File d:\home\src\trinity\projects\trinity.c\src\network\trinitysocketserver.contextobject.cpp
; File d:\home\src\trinity\projects\trinity.c\src\network\trinitysocketserver.send.cpp
; File d:\home\src\trinity\projects\trinity.c\src\network\trinitysocketserver.threading.cpp
; File c:\program files (x86)\microsoft visual studio 12.0\vc\include\xstring
; File c:\program files (x86)\microsoft visual studio 12.0\vc\include\iosfwd
; File c:\program files (x86)\microsoft visual studio 12.0\vc\include\xstring
; File d:\home\src\trinity\projects\trinity.lib\trinity\diagnostics\log.h
; File c:\program files (x86)\microsoft visual studio 12.0\vc\include\xstring
; File c:\program files (x86)\microsoft visual studio 12.0\vc\include\xmemory0
; File c:\program files (x86)\microsoft visual studio 12.0\vc\include\xstring
; File c:\program files (x86)\microsoft visual studio 12.0\vc\include\iosfwd
; File c:\program files (x86)\microsoft visual studio 12.0\vc\include\xstring
; File c:\program files (x86)\microsoft visual studio 12.0\vc\include\xmemory0
; File c:\program files (x86)\microsoft visual studio 12.0\vc\include\xstring
; File c:\program files (x86)\microsoft visual studio 12.0\vc\include\iosfwd
; File d:\home\src\trinity\projects\trinity.c\src\network\trinitysocketserver.threading.cpp
; File d:\home\src\trinity\projects\trinity.c\src\runtime\transition.h
; File d:\home\src\trinity\projects\trinity.c\src\network\trinitysocketserver.threading.cpp
;	COMDAT ?ProcessIOCompletion@Network@Trinity@@YA_NPEAXII@Z
_TEXT	SEGMENT
$T1 = 32
GCX$ = 64
$T2 = 88
$T3 = 120
frame$ = 128
pContext$ = 400
opType$ = 408
bytesTransferred$ = 416
?ProcessIOCompletion@Network@Trinity@@YA_NPEAXII@Z PROC	; Trinity::Network::ProcessIOCompletion, COMDAT

; 67   :         {

$LN164:
	mov	rax, rsp
	push	rbp
	lea	rbp, QWORD PTR [rsp-128]
	sub	rsp, 384				; 00000180H
	mov	QWORD PTR $T3[rsp], -2
	mov	QWORD PTR [rax+8], rbx
	mov	QWORD PTR [rax+16], rsi
	mov	QWORD PTR [rax+24], rdi
	mov	QWORD PTR [rax+32], r14
	mov	edi, r8d
	mov	esi, edx
	mov	rbx, rcx
; File d:\home\src\trinity\projects\trinity.c\src\runtime\transition.h

; 33   : 	size_t cookie = 0;

	xor	r14d, r14d
	mov	QWORD PTR frame$[rbp-256], r14

; 26   : 		FrameStart[0] = vtable;

	mov	rax, QWORD PTR ?vtable@@3_KA		; vtable
	mov	QWORD PTR frame$[rbp-248], rax

; 27   : 		FrameStart[1] = 0;

	mov	QWORD PTR frame$[rbp-240], r14

; 28   : 		FrameStart[2] = 0;

	mov	QWORD PTR frame$[rbp-232], r14

; 29   : 		FrameStart[3] = 0;

	mov	QWORD PTR frame$[rbp-224], r14

; 30   : 		FrameStart[4] = 0;

	mov	QWORD PTR frame$[rbp-216], r14

; 31   : 		FrameStart[5] = func_addr;

	mov	QWORD PTR frame$[rbp-208], r14
; File d:\home\src\trinity\projects\trinity.c\src\network\trinitysocketserver.threading.cpp

; 68   :             TRINITY_INTEROP_ENTER_UNMANAGED();

	mov	QWORD PTR GCX$[rsp], r14
	mov	QWORD PTR GCX$[rsp+8], r14
	mov	QWORD PTR GCX$[rsp+16], r14
	cmp	BYTE PTR ?__transition_enabled@@3_NA, r14b ; __transition_enabled
	je	SHORT $LN16@ProcessIOC
; File d:\home\src\trinity\projects\trinity.c\src\runtime\transition.h

; 55   : 	clr_LazyMachStateCaptureState(frame.MachState);

	lea	rcx, QWORD PTR frame$[rbp-200]
	call	QWORD PTR ?LazyMachStateCaptureState@@3_KA ; LazyMachStateCaptureState

; 61   : }
; 62   : inline void ConstructFrame(HelperMethodFrameWithCookie& frame)
; 63   : {
; 64   : 	FUNC clr_HelperMethodFrame_Push = (FUNC)HelperFramePush;
; 65   : 	clr_HelperMethodFrame_Push(frame.FrameStart);

	lea	rcx, QWORD PTR frame$[rbp-248]
	call	QWORD PTR ?HelperFramePush@@3_KA	; HelperFramePush

; 34   : 	uint64_t FrameStart[6];
; 35   : 	uint64_t MachState[24];
; 36   : };
; 37   : typedef void(*FUNC)(uint64_t*);
; 38   : 
; 39   : inline void SetPreemptive(uint64_t* gcPreemp)
; 40   : {
; 41   : 	FUNC gcPreempCtor = (FUNC)GCPreempCtor;
; 42   : 	gcPreempCtor(gcPreemp);

	lea	rcx, QWORD PTR GCX$[rsp]
	call	QWORD PTR ?GCPreempCtor@@3_KA		; GCPreempCtor
$LN16@ProcessIOC:
; File d:\home\src\trinity\projects\trinity.c\src\network\trinitysocketserver.threading.cpp

; 69   :             if (opType == (uint32_t)SocketAsyncOperation::Receive)

	cmp	esi, 1
	jne	SHORT $LN5@ProcessIOC

; 70   :             {
; 71   :                 bool ret = ProcessRecv((PerSocketContextObject*)pContext, bytesTransferred);

	mov	edx, edi
	mov	rcx, rbx
	call	?ProcessRecv@Network@Trinity@@YA_NPEAUPerSocketContextObject@12@I@Z ; Trinity::Network::ProcessRecv
	movzx	ebx, al

; 72   :                 TRINITY_INTEROP_LEAVE_UNMANAGED();

	cmp	BYTE PTR ?__transition_enabled@@3_NA, r14b ; __transition_enabled
	je	SHORT $LN22@ProcessIOC
; File d:\home\src\trinity\projects\trinity.c\src\runtime\transition.h

; 48   : 	gcCoopCtor(gcCoop);

	lea	rcx, QWORD PTR GCX$[rsp]
	call	QWORD PTR ?GCCoopCtor@@3_KA		; GCCoopCtor

; 56   : }
; 57   : inline void RestoreState(HelperMethodFrameWithCookie& frame)
; 58   : {
; 59   : 	FUNC clr_HelperMethodFrameRestoreState = (FUNC)FrameRestore;
; 60   : 	clr_HelperMethodFrameRestoreState(frame.MachState);

	lea	rcx, QWORD PTR frame$[rbp-200]
	call	QWORD PTR ?FrameRestore@@3_KA		; FrameRestore

; 66   : }
; 67   : inline void DeconstructFrame(HelperMethodFrameWithCookie& frame)
; 68   : {
; 69   : 	FUNC clr_HelperMethodFrame_Pop = (FUNC)HelperFramePop;
; 70   : 	clr_HelperMethodFrame_Pop(frame.FrameStart);

	lea	rcx, QWORD PTR frame$[rbp-248]
	call	QWORD PTR ?HelperFramePop@@3_KA		; HelperFramePop
$LN22@ProcessIOC:
; File d:\home\src\trinity\projects\trinity.c\src\network\trinitysocketserver.threading.cpp

; 73   :                 return ret;

	movzx	eax, bl
	jmp	$LN7@ProcessIOC
$LN5@ProcessIOC:

; 74   :             }
; 75   : 
; 76   :             if (opType == (uint32_t)SocketAsyncOperation::Send)

	cmp	esi, 2
	jne	SHORT $LN3@ProcessIOC
; File d:\home\src\trinity\projects\trinity.c\src\network\trinitysocketserver.send.cpp

; 32   :             pContext->RemainingBytesToSend -= (int32_t)bytesSent;

	sub	DWORD PTR [rbx+8204], edi

; 33   :             pContext->BytesAlreadySent += (int32_t)bytesSent;

	add	DWORD PTR [rbx+8236], edi

; 34   :             if (pContext->RemainingBytesToSend > 0)

	cmp	DWORD PTR [rbx+8204], r14d
	jle	SHORT $LN25@ProcessIOC

; 35   :             {
; 36   :                 SendAsync(pContext);

	mov	rcx, rbx
	call	?SendAsync@Network@Trinity@@YAXPEAUPerSocketContextObject@12@@Z ; Trinity::Network::SendAsync

; 37   :             }
; 38   :             else

	jmp	SHORT $LN24@ProcessIOC
$LN25@ProcessIOC:
; File d:\home\src\trinity\projects\trinity.c\src\network\trinitysocketserver.contextobject.cpp

; 55   :             pContext->wsaBuffer.buf = pContext->Buffer;

	mov	QWORD PTR [rbx+8216], rbx

; 56   :             pContext->wsaBuffer.len = UInt32_Contants::SocketBufferSize;

	mov	DWORD PTR [rbx+8208], 8192		; 00002000H

; 57   :             free(pContext->Message);

	mov	rcx, QWORD PTR [rbx+8192]
	call	free

; 58   :             pContext->ReceivedPrefixBytes = 0;

	mov	QWORD PTR [rbx+8232], r14

; 59   :             pContext->ReceivedMessageBodyBytes = 0;

	mov	QWORD PTR [rbx+8200], r14

; 60   :             pContext->RemainingBytesToSend = 0;
; 61   :             pContext->BytesAlreadySent = 0;
; 62   :             pContext->Message = NULL;

	mov	QWORD PTR [rbx+8192], r14

; 63   :             pContext->BodyLength = 0;

	mov	DWORD PTR [rbx+8248], r14d
; File d:\home\src\trinity\projects\trinity.c\src\network\trinitysocketserver.send.cpp

; 42   :                 ReceiveAsync(pContext);

	mov	rcx, rbx
	call	?ReceiveAsync@Network@Trinity@@YAXPEAUPerSocketContextObject@12@@Z ; Trinity::Network::ReceiveAsync
$LN24@ProcessIOC:
; File d:\home\src\trinity\projects\trinity.c\src\network\trinitysocketserver.threading.cpp

; 79   :                 TRINITY_INTEROP_LEAVE_UNMANAGED();

	cmp	BYTE PTR ?__transition_enabled@@3_NA, r14b ; __transition_enabled

; 80   :                 return false;

	jmp	$LN163@ProcessIOC
$LN3@ProcessIOC:
; File c:\program files (x86)\microsoft visual studio 12.0\vc\include\xstring

; 494  : 		_Mysize = 0;

	mov	QWORD PTR $T1[rsp+16], r14

; 495  : 		_Myres = 0;

	mov	QWORD PTR $T1[rsp+24], r14

; 2284 : 		this->_Myres = this->_BUF_SIZE - 1;

	mov	QWORD PTR $T1[rsp+24], 15

; 1170 : 		}
; 1171 : 
; 1172 : 	_Myt& assign(size_type _Count, _Elem _Ch)
; 1173 : 		{	// assign _Count * _Ch
; 1174 : 		if (_Count == npos)
; 1175 : 			_Xlen();	// result too long
; 1176 : 
; 1177 : 		if (_Grow(_Count))
; 1178 : 			{	// make room and assign new stuff
; 1179 : 			_Chassign(0, _Count, _Ch);
; 1180 : 			_Eos(_Count);
; 1181 : 			}
; 1182 : 		return (*this);
; 1183 : 		}
; 1184 : 
; 1185 : 	template<class _Iter>
; 1186 : 		typename enable_if<_Is_iterator<_Iter>::value,
; 1187 : 			_Myt&>::type
; 1188 : 		assign(_Iter _First, _Iter _Last)
; 1189 : 		{	// assign [_First, _Last), input iterators
; 1190 : 		return (replace(begin(), end(), _First, _Last));
; 1191 : 		}
; 1192 : 
; 1193 : 	_Myt& assign(const_pointer _First, const_pointer _Last)
; 1194 : 		{	// assign [_First, _Last), const pointers
; 1195 : 		return (replace(begin(), end(), _First, _Last));
; 1196 : 		}
; 1197 : 
; 1198 : 	_Myt& assign(const_iterator _First, const_iterator _Last)
; 1199 : 		{	// assign [_First, _Last), const_iterators
; 1200 : 		return (replace(begin(), end(), _First, _Last));
; 1201 : 		}
; 1202 : 
; 1203 : 	_Myt& insert(size_type _Off, const _Myt& _Right)
; 1204 : 		{	// insert _Right at _Off
; 1205 : 		return (insert(_Off, _Right, 0, npos));
; 1206 : 		}
; 1207 : 
; 1208 : 	_Myt& insert(size_type _Off,
; 1209 : 		const _Myt& _Right, size_type _Roff, size_type _Count)
; 1210 : 		{	// insert _Right [_Roff, _Roff + _Count) at _Off
; 1211 : 		if (this->_Mysize < _Off || _Right.size() < _Roff)
; 1212 : 			_Xran();	// _Off or _Roff off end
; 1213 : 		size_type _Num = _Right.size() - _Roff;
; 1214 : 		if (_Num < _Count)
; 1215 : 			_Count = _Num;	// trim _Count to size
; 1216 : 		if (npos - this->_Mysize <= _Count)
; 1217 : 			_Xlen();	// result too long
; 1218 : 
; 1219 : 		if (0 < _Count && _Grow(_Num = this->_Mysize + _Count))
; 1220 : 			{	// make room and insert new stuff
; 1221 : 			_Traits::move(this->_Myptr() + _Off + _Count,
; 1222 : 				this->_Myptr() + _Off,
; 1223 : 				this->_Mysize - _Off);	// empty out hole
; 1224 : 			if (this == &_Right)
; 1225 : 				_Traits::move(this->_Myptr() + _Off,
; 1226 : 					this->_Myptr() + (_Off < _Roff ? _Roff + _Count : _Roff),
; 1227 : 						_Count);	// substring
; 1228 : 			else
; 1229 : 				_Traits::copy(this->_Myptr() + _Off,
; 1230 : 					_Right._Myptr() + _Roff, _Count);	// fill hole
; 1231 : 			_Eos(_Num);
; 1232 : 			}
; 1233 : 		return (*this);
; 1234 : 		}
; 1235 : 
; 1236 : 	_Myt& insert(size_type _Off,
; 1237 : 		const _Elem *_Ptr, size_type _Count)
; 1238 : 		{	// insert [_Ptr, _Ptr + _Count) at _Off
; 1239 :  #if _ITERATOR_DEBUG_LEVEL == 2
; 1240 : 		if (_Count != 0)
; 1241 : 			_DEBUG_POINTER(_Ptr);
; 1242 :  #endif /* _ITERATOR_DEBUG_LEVEL == 2 */
; 1243 : 
; 1244 : 		if (_Inside(_Ptr))
; 1245 : 			return (insert(_Off, *this,
; 1246 : 				_Ptr - this->_Myptr(), _Count));	// substring
; 1247 : 		if (this->_Mysize < _Off)
; 1248 : 			_Xran();	// _Off off end
; 1249 : 		if (npos - this->_Mysize <= _Count)
; 1250 : 			_Xlen();	// result too long
; 1251 : 		size_type _Num;
; 1252 : 		if (0 < _Count && _Grow(_Num = this->_Mysize + _Count))
; 1253 : 			{	// make room and insert new stuff
; 1254 : 			_Traits::move(this->_Myptr() + _Off + _Count,
; 1255 : 				this->_Myptr() + _Off,
; 1256 : 				this->_Mysize - _Off);	// empty out hole
; 1257 : 			_Traits::copy(this->_Myptr() + _Off, _Ptr, _Count);	// fill hole
; 1258 : 			_Eos(_Num);
; 1259 : 			}
; 1260 : 		return (*this);
; 1261 : 		}
; 1262 : 
; 1263 : 	_Myt& insert(size_type _Off, const _Elem *_Ptr)
; 1264 : 		{	// insert [_Ptr, <null>) at _Off
; 1265 : 		_DEBUG_POINTER(_Ptr);
; 1266 : 		return (insert(_Off, _Ptr, _Traits::length(_Ptr)));
; 1267 : 		}
; 1268 : 
; 1269 : 	_Myt& insert(size_type _Off,
; 1270 : 		size_type _Count, _Elem _Ch)
; 1271 : 		{	// insert _Count * _Ch at _Off
; 1272 : 		if (this->_Mysize < _Off)
; 1273 : 			_Xran();	// _Off off end
; 1274 : 		if (npos - this->_Mysize <= _Count)
; 1275 : 			_Xlen();	// result too long
; 1276 : 		size_type _Num;
; 1277 : 		if (0 < _Count && _Grow(_Num = this->_Mysize + _Count))
; 1278 : 			{	// make room and insert new stuff
; 1279 : 			_Traits::move(this->_Myptr() + _Off + _Count,
; 1280 : 				this->_Myptr() + _Off,
; 1281 : 				this->_Mysize - _Off);	// empty out hole
; 1282 : 			_Chassign(_Off, _Count, _Ch);	// fill hole
; 1283 : 			_Eos(_Num);
; 1284 : 			}
; 1285 : 		return (*this);
; 1286 : 		}
; 1287 : 
; 1288 : 	iterator insert(const_iterator _Where)
; 1289 : 		{	// insert <null> at _Where
; 1290 : 		return (insert(_Where, _Elem()));
; 1291 : 		}
; 1292 : 
; 1293 : 	iterator insert(const_iterator _Where, _Elem _Ch)
; 1294 : 		{	// insert _Ch at _Where
; 1295 : 		size_type _Off = _Pdif(_Where, begin());
; 1296 : 		insert(_Off, 1, _Ch);
; 1297 : 		return (begin() + _Off);
; 1298 : 		}
; 1299 : 
; 1300 : 	iterator insert(const_iterator _Where, size_type _Count, _Elem _Ch)
; 1301 : 		{	// insert _Count * _Elem at _Where
; 1302 : 		size_type _Off = _Pdif(_Where, begin());
; 1303 : 		insert(_Off, _Count, _Ch);
; 1304 : 		return (begin() + _Off);
; 1305 : 		}
; 1306 : 
; 1307 : 	template<class _Iter>
; 1308 : 		typename enable_if<_Is_iterator<_Iter>::value,
; 1309 : 			iterator>::type
; 1310 : 		insert(const_iterator _Where, _Iter _First, _Iter _Last)
; 1311 : 		{	// insert [_First, _Last) at _Where, input iterators
; 1312 : 		size_type _Off = _Pdif(_Where, begin());
; 1313 : 		replace(_Where, _Where, _First, _Last);
; 1314 : 		return (begin() + _Off);
; 1315 : 		}
; 1316 : 
; 1317 : 	iterator insert(const_iterator _Where,
; 1318 : 		const_pointer _First, const_pointer _Last)
; 1319 : 		{	// insert [_First, _Last) at _Where, const pointers
; 1320 : 		size_type _Off = _Pdif(_Where, begin());
; 1321 : 		replace(_Where, _Where, _First, _Last);
; 1322 : 		return (begin() + _Off);
; 1323 : 		}
; 1324 : 
; 1325 : 	iterator insert(const_iterator _Where,
; 1326 : 		const_iterator _First, const_iterator _Last)
; 1327 : 		{	// insert [_First, _Last) at _Where, const_iterators
; 1328 : 		size_type _Off = _Pdif(_Where, begin());
; 1329 : 		replace(_Where, _Where, _First, _Last);
; 1330 : 		return (begin() + _Off);
; 1331 : 		}
; 1332 : 
; 1333 : 	_Myt& erase(size_type _Off = 0)
; 1334 : 		{	// erase elements [_Off, ...)
; 1335 : 		if (this->_Mysize < _Off)
; 1336 : 			_Xran();	// _Off off end
; 1337 : 		_Eos(_Off);
; 1338 : 		return (*this);
; 1339 : 		}
; 1340 : 
; 1341 : 	_Myt& erase(size_type _Off, size_type _Count)
; 1342 : 		{	// erase elements [_Off, _Off + _Count)
; 1343 : 		if (this->_Mysize < _Off)
; 1344 : 			_Xran();	// _Off off end
; 1345 : 		if (this->_Mysize - _Off <= _Count)
; 1346 : 			_Eos(_Off);	// erase elements [_Off, ...)
; 1347 : 		else if (0 < _Count)
; 1348 : 			{	// move elements down
; 1349 : 			value_type *_Ptr = this->_Myptr() + _Off;
; 1350 : 			size_type _Newsize = this->_Mysize - _Count;
; 1351 : 			_Traits::move(_Ptr, _Ptr + _Count, _Newsize - _Off);
; 1352 : 			_Eos(_Newsize);
; 1353 : 			}
; 1354 : 		return (*this);
; 1355 : 		}
; 1356 : 
; 1357 : 	iterator erase(const_iterator _Where)
; 1358 : 		{	// erase element at _Where
; 1359 : 		size_type _Count = _Pdif(_Where, begin());
; 1360 : 		erase(_Count, 1);
; 1361 : 		return (_STRING_ITERATOR(this->_Myptr() + _Count));
; 1362 : 		}
; 1363 : 
; 1364 : 	iterator erase(const_iterator _First, const_iterator _Last)
; 1365 : 		{	// erase substring [_First, _Last)
; 1366 : 		_DEBUG_RANGE(_First, _Last);
; 1367 : 		size_type _Count = _Pdif(_First, begin());
; 1368 : 		erase(_Count, _Pdif(_Last, _First));
; 1369 : 		return (_STRING_ITERATOR(this->_Myptr() + _Count));
; 1370 : 		}
; 1371 : 
; 1372 : 	void clear() _NOEXCEPT
; 1373 : 		{	// erase all
; 1374 : 		_Eos(0);
; 1375 : 		}
; 1376 : 
; 1377 : 	_Myt& replace(size_type _Off, size_type _N0, const _Myt& _Right)
; 1378 : 		{	// replace [_Off, _Off + _N0) with _Right
; 1379 : 		return (replace(_Off, _N0, _Right, 0, npos));
; 1380 : 		}
; 1381 : 
; 1382 : 	_Myt& replace(size_type _Off,
; 1383 : 		size_type _N0, const _Myt& _Right, size_type _Roff, size_type _Count)
; 1384 : 		{	// replace [_Off, _Off + _N0) with _Right [_Roff, _Roff + _Count)
; 1385 : 		if (this->_Mysize < _Off || _Right.size() < _Roff)
; 1386 : 			_Xran();	// _Off or _Roff off end
; 1387 : 		if (this->_Mysize - _Off < _N0)
; 1388 : 			_N0 = this->_Mysize - _Off;	// trim _N0 to size
; 1389 : 		size_type _Num = _Right.size() - _Roff;
; 1390 : 		if (_Num < _Count)
; 1391 : 			_Count = _Num;	// trim _Count to size
; 1392 : 		if (npos - _Count <= this->_Mysize - _N0)
; 1393 : 			_Xlen();	// result too long
; 1394 : 
; 1395 : 		size_type _Nm = this->_Mysize - _N0 - _Off;	// length of kept tail
; 1396 : 		size_type _Newsize = this->_Mysize + _Count - _N0;
; 1397 : 		if (this->_Mysize < _Newsize)
; 1398 : 			_Grow(_Newsize);
; 1399 : 
; 1400 : 		if (this != &_Right)
; 1401 : 			{	// no overlap, just move down and copy in new stuff
; 1402 : 			_Traits::move(this->_Myptr() + _Off + _Count,
; 1403 : 				this->_Myptr() + _Off + _N0, _Nm);	// empty hole
; 1404 : 			_Traits::copy(this->_Myptr() + _Off,
; 1405 : 				_Right._Myptr() + _Roff, _Count);	// fill hole
; 1406 : 			}
; 1407 : 		else if (_Count <= _N0)
; 1408 : 			{	// hole doesn't get larger, just copy in substring
; 1409 : 			_Traits::move(this->_Myptr() + _Off,
; 1410 : 				this->_Myptr() + _Roff, _Count);	// fill hole
; 1411 : 			_Traits::move(this->_Myptr() + _Off + _Count,
; 1412 : 				this->_Myptr() + _Off + _N0, _Nm);	// move tail down
; 1413 : 			}
; 1414 : 		else if (_Roff <= _Off)
; 1415 : 			{	// hole gets larger, substring begins before hole
; 1416 : 			_Traits::move(this->_Myptr() + _Off + _Count,
; 1417 : 				this->_Myptr() + _Off + _N0, _Nm);	// move tail down
; 1418 : 			_Traits::move(this->_Myptr() + _Off,
; 1419 : 				this->_Myptr() + _Roff, _Count);	// fill hole
; 1420 : 			}
; 1421 : 		else if (_Off + _N0 <= _Roff)
; 1422 : 			{	// hole gets larger, substring begins after hole
; 1423 : 			_Traits::move(this->_Myptr() + _Off + _Count,
; 1424 : 				this->_Myptr() + _Off + _N0, _Nm);	// move tail down
; 1425 : 			_Traits::move(this->_Myptr() + _Off,
; 1426 : 				this->_Myptr() + (_Roff + _Count - _N0),
; 1427 : 				_Count);	// fill hole
; 1428 : 			}
; 1429 : 		else
; 1430 : 			{	// hole gets larger, substring begins in hole
; 1431 : 			_Traits::move(this->_Myptr() + _Off,
; 1432 : 				this->_Myptr() + _Roff, _N0);	// fill old hole
; 1433 : 			_Traits::move(this->_Myptr() + _Off + _Count,
; 1434 : 				this->_Myptr() + _Off + _N0, _Nm);	// move tail down
; 1435 : 			_Traits::move(this->_Myptr() + _Off + _N0,
; 1436 : 				this->_Myptr() + _Roff + _Count,
; 1437 : 				_Count - _N0);	// fill rest of new hole
; 1438 : 			}
; 1439 : 
; 1440 : 		_Eos(_Newsize);
; 1441 : 		return (*this);
; 1442 : 		}
; 1443 : 
; 1444 : 	_Myt& replace(size_type _Off,
; 1445 : 		size_type _N0, const _Elem *_Ptr, size_type _Count)
; 1446 : 		{	// replace [_Off, _Off + _N0) with [_Ptr, _Ptr + _Count)
; 1447 :  #if _ITERATOR_DEBUG_LEVEL == 2
; 1448 : 		if (_Count != 0)
; 1449 : 			_DEBUG_POINTER(_Ptr);
; 1450 :  #endif /* _ITERATOR_DEBUG_LEVEL == 2 */
; 1451 : 
; 1452 : 		if (_Inside(_Ptr))
; 1453 : 			return (replace(_Off, _N0, *this,
; 1454 : 				_Ptr - this->_Myptr(),
; 1455 : 				_Count));	// substring, replace carefully
; 1456 : 		if (this->_Mysize < _Off)
; 1457 : 			_Xran();	// _Off off end
; 1458 : 		if (this->_Mysize - _Off < _N0)
; 1459 : 			_N0 = this->_Mysize - _Off;	// trim _N0 to size
; 1460 : 		if (npos - _Count <= this->_Mysize - _N0)
; 1461 : 			_Xlen();	// result too long
; 1462 : 		size_type _Nm = this->_Mysize - _N0 - _Off;
; 1463 : 
; 1464 : 		if (_Count < _N0)
; 1465 : 			_Traits::move(this->_Myptr() + _Off + _Count,
; 1466 : 				this->_Myptr() + _Off + _N0,
; 1467 : 				_Nm);	// smaller hole, move tail up
; 1468 : 		size_type _Num;
; 1469 : 		if ((0 < _Count || 0 < _N0)
; 1470 : 			&& _Grow(_Num = this->_Mysize + _Count - _N0))
; 1471 : 			{	// make room and rearrange
; 1472 : 			if (_N0 < _Count)
; 1473 : 				_Traits::move(this->_Myptr() + _Off + _Count,
; 1474 : 					this->_Myptr() + _Off + _N0, _Nm);	// move tail down
; 1475 : 			_Traits::copy(this->_Myptr() + _Off, _Ptr, _Count);	// fill hole
; 1476 : 			_Eos(_Num);
; 1477 : 			}
; 1478 : 		return (*this);
; 1479 : 		}
; 1480 : 
; 1481 : 	_Myt& replace(size_type _Off, size_type _N0, const _Elem *_Ptr)
; 1482 : 		{	// replace [_Off, _Off + _N0) with [_Ptr, <null>)
; 1483 : 		_DEBUG_POINTER(_Ptr);
; 1484 : 		return (replace(_Off, _N0, _Ptr, _Traits::length(_Ptr)));
; 1485 : 		}
; 1486 : 
; 1487 : 	_Myt& replace(size_type _Off,
; 1488 : 		size_type _N0, size_type _Count, _Elem _Ch)
; 1489 : 		{	// replace [_Off, _Off + _N0) with _Count * _Ch
; 1490 : 		if (this->_Mysize < _Off)
; 1491 : 			_Xran();	// _Off off end
; 1492 : 		if (this->_Mysize - _Off < _N0)
; 1493 : 			_N0 = this->_Mysize - _Off;	// trim _N0 to size
; 1494 : 		if (npos - _Count <= this->_Mysize - _N0)
; 1495 : 			_Xlen();	// result too long
; 1496 : 		size_type _Nm = this->_Mysize - _N0 - _Off;
; 1497 : 
; 1498 : 		if (_Count < _N0)
; 1499 : 			_Traits::move(this->_Myptr() + _Off + _Count,
; 1500 : 				this->_Myptr() + _Off + _N0,
; 1501 : 				_Nm);	// smaller hole, move tail up
; 1502 : 		size_type _Num;
; 1503 : 		if ((0 < _Count || 0 < _N0)
; 1504 : 			&& _Grow(_Num = this->_Mysize + _Count - _N0))
; 1505 : 			{	// make room and rearrange
; 1506 : 			if (_N0 < _Count)
; 1507 : 				_Traits::move(this->_Myptr() + _Off + _Count,
; 1508 : 					this->_Myptr() + _Off + _N0, _Nm);	// move tail down
; 1509 : 			_Chassign(_Off, _Count, _Ch);	// fill hole
; 1510 : 			_Eos(_Num);
; 1511 : 			}
; 1512 : 		return (*this);
; 1513 : 		}
; 1514 : 
; 1515 : 	_Myt& replace(const_iterator _First, const_iterator _Last,
; 1516 : 		const _Myt& _Right)
; 1517 : 		{	// replace [_First, _Last) with _Right
; 1518 : 		return (replace(
; 1519 : 			_Pdif(_First, begin()), _Pdif(_Last, _First), _Right));
; 1520 : 		}
; 1521 : 
; 1522 : 	_Myt& replace(const_iterator _First, const_iterator _Last,
; 1523 : 		const _Elem *_Ptr, size_type _Count)
; 1524 : 		{	// replace [_First, _Last) with [_Ptr, _Ptr + _Count)
; 1525 : 		return (replace(
; 1526 : 			_Pdif(_First, begin()), _Pdif(_Last, _First), _Ptr, _Count));
; 1527 : 		}
; 1528 : 
; 1529 : 	_Myt& replace(const_iterator _First, const_iterator _Last,
; 1530 : 		const _Elem *_Ptr)
; 1531 : 		{	// replace [_First, _Last) with [_Ptr, <null>)
; 1532 : 		return (replace(
; 1533 : 			_Pdif(_First, begin()), _Pdif(_Last, _First), _Ptr));
; 1534 : 		}
; 1535 : 
; 1536 : 	_Myt& replace(const_iterator _First, const_iterator _Last,
; 1537 : 		size_type _Count, _Elem _Ch)
; 1538 : 		{	// replace [_First, _Last) with _Count * _Ch
; 1539 : 		return (replace(
; 1540 : 			_Pdif(_First, begin()), _Pdif(_Last, _First), _Count, _Ch));
; 1541 : 		}
; 1542 : 
; 1543 : 	template<class _Iter>
; 1544 : 		typename enable_if<_Is_iterator<_Iter>::value,
; 1545 : 			_Myt&>::type
; 1546 : 		replace(const_iterator _First, const_iterator _Last,
; 1547 : 			_Iter _First2, _Iter _Last2)
; 1548 : 		{	// replace [_First, _Last) with [_First2, _Last2), input iterators
; 1549 : 		_Myt _Right(_First2, _Last2);
; 1550 : 		replace(_First, _Last, _Right);
; 1551 : 		return (*this);
; 1552 : 		}
; 1553 : 
; 1554 : 	_Myt& replace(const_iterator _First, const_iterator _Last,
; 1555 : 		const_pointer _First2, const_pointer _Last2)
; 1556 : 		{	// replace [_First, _Last) with [_First2, _Last2), const pointers
; 1557 : 		if (_First2 == _Last2)
; 1558 : 			erase(_Pdif(_First, begin()), _Pdif(_Last, _First));
; 1559 : 		else
; 1560 : 			replace(_Pdif(_First, begin()), _Pdif(_Last, _First),
; 1561 : 				&*_First2, _Last2 - _First2);
; 1562 : 		return (*this);
; 1563 : 		}
; 1564 : 
; 1565 : 	_Myt& replace(const_iterator _First, const_iterator _Last,
; 1566 : 		pointer _First2, pointer _Last2)
; 1567 : 		{	// replace [_First, _Last) with [_First2, _Last2), const pointers
; 1568 : 		if (_First2 == _Last2)
; 1569 : 			erase(_Pdif(_First, begin()), _Pdif(_Last, _First));
; 1570 : 		else
; 1571 : 			replace(_Pdif(_First, begin()), _Pdif(_Last, _First),
; 1572 : 				&*_First2, _Last2 - _First2);
; 1573 : 		return (*this);
; 1574 : 		}
; 1575 : 
; 1576 : 	_Myt& replace(const_iterator _First, const_iterator _Last,
; 1577 : 		const_iterator _First2, const_iterator _Last2)
; 1578 : 		{	// replace [_First, _Last) with [_First2, _Last2), const_iterators
; 1579 : 		if (_First2 == _Last2)
; 1580 : 			erase(_Pdif(_First, begin()), _Pdif(_Last, _First));
; 1581 : 		else
; 1582 : 			replace(_Pdif(_First, begin()), _Pdif(_Last, _First),
; 1583 : 				&*_First2, _Last2 - _First2);
; 1584 : 		return (*this);
; 1585 : 		}
; 1586 : 
; 1587 : 	_Myt& replace(const_iterator _First, const_iterator _Last,
; 1588 : 		iterator _First2, iterator _Last2)
; 1589 : 		{	// replace [_First, _Last) with [_First2, _Last2), const_iterators
; 1590 : 		if (_First2 == _Last2)
; 1591 : 			erase(_Pdif(_First, begin()), _Pdif(_Last, _First));
; 1592 : 		else
; 1593 : 			replace(_Pdif(_First, begin()), _Pdif(_Last, _First),
; 1594 : 				&*_First2, _Last2 - _First2);
; 1595 : 		return (*this);
; 1596 : 		}
; 1597 : 
; 1598 : 	iterator begin() _NOEXCEPT
; 1599 : 		{	// return iterator for beginning of mutable sequence
; 1600 : 		return (_STRING_ITERATOR(this->_Myptr()));
; 1601 : 		}
; 1602 : 
; 1603 : 	const_iterator begin() const _NOEXCEPT
; 1604 : 		{	// return iterator for beginning of nonmutable sequence
; 1605 : 		return (_STRING_CONST_ITERATOR(this->_Myptr()));
; 1606 : 		}
; 1607 : 
; 1608 : 	iterator end() _NOEXCEPT
; 1609 : 		{	// return iterator for end of mutable sequence
; 1610 : 		return (_STRING_ITERATOR(this->_Myptr() + this->_Mysize));
; 1611 : 		}
; 1612 : 
; 1613 : 	const_iterator end() const _NOEXCEPT
; 1614 : 		{	// return iterator for end of nonmutable sequence
; 1615 : 		return (_STRING_CONST_ITERATOR(this->_Myptr() + this->_Mysize));
; 1616 : 		}
; 1617 : 
; 1618 : 	reverse_iterator rbegin() _NOEXCEPT
; 1619 : 		{	// return iterator for beginning of reversed mutable sequence
; 1620 : 		return (reverse_iterator(end()));
; 1621 : 		}
; 1622 : 
; 1623 : 	const_reverse_iterator rbegin() const _NOEXCEPT
; 1624 : 		{	// return iterator for beginning of reversed nonmutable sequence
; 1625 : 		return (const_reverse_iterator(end()));
; 1626 : 		}
; 1627 : 
; 1628 : 	reverse_iterator rend() _NOEXCEPT
; 1629 : 		{	// return iterator for end of reversed mutable sequence
; 1630 : 		return (reverse_iterator(begin()));
; 1631 : 		}
; 1632 : 
; 1633 : 	const_reverse_iterator rend() const _NOEXCEPT
; 1634 : 		{	// return iterator for end of reversed nonmutable sequence
; 1635 : 		return (const_reverse_iterator(begin()));
; 1636 : 		}
; 1637 : 
; 1638 : 	const_iterator cbegin() const _NOEXCEPT
; 1639 : 		{	// return iterator for beginning of nonmutable sequence
; 1640 : 		return (((const _Myt *)this)->begin());
; 1641 : 		}
; 1642 : 
; 1643 : 	const_iterator cend() const _NOEXCEPT
; 1644 : 		{	// return iterator for end of nonmutable sequence
; 1645 : 		return (((const _Myt *)this)->end());
; 1646 : 		}
; 1647 : 
; 1648 : 	const_reverse_iterator crbegin() const _NOEXCEPT
; 1649 : 		{	// return iterator for beginning of reversed nonmutable sequence
; 1650 : 		return (((const _Myt *)this)->rbegin());
; 1651 : 		}
; 1652 : 
; 1653 : 	const_reverse_iterator crend() const _NOEXCEPT
; 1654 : 		{	// return iterator for end of reversed nonmutable sequence
; 1655 : 		return (((const _Myt *)this)->rend());
; 1656 : 		}
; 1657 : 
; 1658 : 	void shrink_to_fit()
; 1659 : 		{	// reduce capacity
; 1660 : 		if ((size() | this->_ALLOC_MASK) < capacity())
; 1661 : 			{	// worth shrinking, do it
; 1662 : 			_Myt _Tmp(*this);
; 1663 : 			swap(_Tmp);
; 1664 : 			}
; 1665 : 		}
; 1666 : 
; 1667 : 	reference at(size_type _Off)
; 1668 : 		{	// subscript mutable sequence with checking
; 1669 : 		if (this->_Mysize <= _Off)
; 1670 : 			_Xran();	// _Off off end
; 1671 : 		return (this->_Myptr()[_Off]);
; 1672 : 		}
; 1673 : 
; 1674 : 	const_reference at(size_type _Off) const
; 1675 : 		{	// subscript nonmutable sequence with checking
; 1676 : 		if (this->_Mysize <= _Off)
; 1677 : 			_Xran();	// _Off off end
; 1678 : 		return (this->_Myptr()[_Off]);
; 1679 : 		}
; 1680 : 
; 1681 : 	reference operator[](size_type _Off)
; 1682 : 		{	// subscript mutable sequence
; 1683 :  #if _ITERATOR_DEBUG_LEVEL == 2
; 1684 : 		if (this->_Mysize < _Off)	// sic
; 1685 : 			_DEBUG_ERROR("string subscript out of range");
; 1686 : 
; 1687 :  #elif _ITERATOR_DEBUG_LEVEL == 1
; 1688 : 		_SCL_SECURE_VALIDATE_RANGE(_Off <= this->_Mysize);	// sic
; 1689 :  #endif /* _ITERATOR_DEBUG_LEVEL == 2 */
; 1690 : 
; 1691 : 		return (this->_Myptr()[_Off]);
; 1692 : 		}
; 1693 : 
; 1694 : 	const_reference operator[](size_type _Off) const
; 1695 : 		{	// subscript nonmutable sequence
; 1696 :  #if _ITERATOR_DEBUG_LEVEL == 2
; 1697 : 		if (this->_Mysize < _Off)	// sic
; 1698 : 			_DEBUG_ERROR("string subscript out of range");
; 1699 : 
; 1700 :  #elif _ITERATOR_DEBUG_LEVEL == 1
; 1701 : 		_SCL_SECURE_VALIDATE_RANGE(_Off <= this->_Mysize);	// sic
; 1702 :  #endif /* _ITERATOR_DEBUG_LEVEL == 2 */
; 1703 : 
; 1704 : 		return (this->_Myptr()[_Off]);
; 1705 : 		}
; 1706 : 
; 1707 : 	void push_back(_Elem _Ch)
; 1708 : 		{	// insert element at end
; 1709 : 		insert(end(), _Ch);
; 1710 : 		}
; 1711 : 
; 1712 : 	void pop_back()
; 1713 : 		{	// erase element at end
; 1714 : 		erase(this->_Mysize - 1);	// throws if _Mysize == 0
; 1715 : 		}
; 1716 : 
; 1717 : 	reference front()
; 1718 : 		{	// return first element of mutable sequence
; 1719 : 		return (*begin());
; 1720 : 		}
; 1721 : 
; 1722 : 	const_reference front() const
; 1723 : 		{	// return first element of nonmutable sequence
; 1724 : 		return (*begin());
; 1725 : 		}
; 1726 : 
; 1727 : 	reference back()
; 1728 : 		{	// return last element of mutable sequence
; 1729 : 		return (*(end() - 1));
; 1730 : 		}
; 1731 : 
; 1732 : 	const_reference back() const
; 1733 : 		{	// return last element of nonmutable sequence
; 1734 : 		return (*(end() - 1));
; 1735 : 		}
; 1736 : 
; 1737 : 	const _Elem *c_str() const _NOEXCEPT
; 1738 : 		{	// return pointer to null-terminated nonmutable array
; 1739 : 		return (this->_Myptr());
; 1740 : 		}
; 1741 : 
; 1742 : 	const _Elem *data() const _NOEXCEPT
; 1743 : 		{	// return pointer to nonmutable array
; 1744 : 		return (c_str());
; 1745 : 		}
; 1746 : 
; 1747 : 	size_type length() const _NOEXCEPT
; 1748 : 		{	// return length of sequence
; 1749 : 		return (this->_Mysize);
; 1750 : 		}
; 1751 : 
; 1752 : 	size_type size() const _NOEXCEPT
; 1753 : 		{	// return length of sequence
; 1754 : 		return (this->_Mysize);
; 1755 : 		}
; 1756 : 
; 1757 : 	size_type max_size() const _NOEXCEPT
; 1758 : 		{	// return maximum possible length of sequence
; 1759 : 		size_type _Num = this->_Getal().max_size();
; 1760 : 		return (_Num <= 1 ? 1 : _Num - 1);
; 1761 : 		}
; 1762 : 
; 1763 : 	void resize(size_type _Newsize)
; 1764 : 		{	// determine new length, padding with null elements as needed
; 1765 : 		resize(_Newsize, _Elem());
; 1766 : 		}
; 1767 : 
; 1768 : 	void resize(size_type _Newsize, _Elem _Ch)
; 1769 : 		{	// determine new length, padding with _Ch elements as needed
; 1770 : 		if (_Newsize <= this->_Mysize)
; 1771 : 			_Eos(_Newsize);
; 1772 : 		else
; 1773 : 			append(_Newsize - this->_Mysize, _Ch);
; 1774 : 		}
; 1775 : 
; 1776 : 	size_type capacity() const _NOEXCEPT
; 1777 : 		{	// return current length of allocated storage
; 1778 : 		return (this->_Myres);
; 1779 : 		}
; 1780 : 
; 1781 : 	void reserve(size_type _Newcap = 0)
; 1782 : 		{	// determine new minimum length of allocated storage
; 1783 : 		if (this->_Mysize <= _Newcap && this->_Myres != _Newcap)
; 1784 : 			{	// change reservation
; 1785 : 			size_type _Size = this->_Mysize;
; 1786 : 			if (_Grow(_Newcap, true))
; 1787 : 				_Eos(_Size);
; 1788 : 			}
; 1789 : 		}
; 1790 : 
; 1791 : 	bool empty() const _NOEXCEPT
; 1792 : 		{	// test if sequence is empty
; 1793 : 		return (this->_Mysize == 0);
; 1794 : 		}
; 1795 : 
; 1796 : 	_SCL_INSECURE_DEPRECATE
; 1797 : 
; 1798 : 	size_type copy(_Elem *_Ptr,
; 1799 : 		size_type _Count, size_type _Off = 0) const
; 1800 : 		{	// copy [_Off, _Off + _Count) to [_Ptr, _Ptr + _Count)
; 1801 :  #if _ITERATOR_DEBUG_LEVEL == 2
; 1802 : 		if (_Count != 0)
; 1803 : 			_DEBUG_POINTER(_Ptr);
; 1804 :  #endif /* _ITERATOR_DEBUG_LEVEL == 2 */
; 1805 : 
; 1806 : 		if (this->_Mysize < _Off)
; 1807 : 			_Xran();	// _Off off end
; 1808 : 		if (this->_Mysize - _Off < _Count)
; 1809 : 			_Count = this->_Mysize - _Off;
; 1810 : 		_Traits::copy(_Ptr, this->_Myptr() + _Off, _Count);
; 1811 : 		return (_Count);
; 1812 : 		}
; 1813 : 
; 1814 : 	size_type _Copy_s(_Elem *_Dest, size_type _Dest_size,
; 1815 : 		size_type _Count, size_type _Off = 0) const
; 1816 : 		{	// copy [_Off, _Off + _Count) to [_Dest, _Dest + _Count)
; 1817 :  #if _ITERATOR_DEBUG_LEVEL == 2
; 1818 : 		if (_Count != 0)
; 1819 : 			_DEBUG_POINTER(_Dest);
; 1820 :  #endif /* _ITERATOR_DEBUG_LEVEL == 2 */
; 1821 : 
; 1822 : 		if (this->_Mysize < _Off)
; 1823 : 			_Xran();	// _Off off end
; 1824 : 		if (this->_Mysize - _Off < _Count)
; 1825 : 			_Count = this->_Mysize - _Off;
; 1826 : 		_Traits::_Copy_s(_Dest, _Dest_size, this->_Myptr() + _Off, _Count);
; 1827 : 		return (_Count);
; 1828 : 		}
; 1829 : 
; 1830 : 	void _Swap_bx(_Myt& _Right)
; 1831 : 		{	// exchange _Bx with _Right._Bx
; 1832 : 		if (this->_BUF_SIZE <= this->_Myres)
; 1833 : 			if (this->_BUF_SIZE <= _Right._Myres)
; 1834 : 				_Swap_adl(this->_Bx._Ptr, _Right._Bx._Ptr);
; 1835 : 			else
; 1836 : 				{	// swap large with small
; 1837 : 				pointer _Ptr = this->_Bx._Ptr;
; 1838 : 				this->_Getal().destroy(&this->_Bx._Ptr);
; 1839 : 				_Traits::copy(this->_Bx._Buf,
; 1840 : 					_Right._Bx._Buf, _Right._Mysize + 1);
; 1841 : 				this->_Getal().construct(&_Right._Bx._Ptr, _Ptr);
; 1842 : 				}
; 1843 : 		else
; 1844 : 			if (_Right._Myres < this->_BUF_SIZE)
; 1845 : 				_STD swap(this->_Bx._Buf, _Right._Bx._Buf);
; 1846 : 			else
; 1847 : 				{	// swap small with large
; 1848 : 				pointer _Ptr = _Right._Bx._Ptr;
; 1849 : 				this->_Getal().destroy(&_Right._Bx._Ptr);
; 1850 : 				_Traits::copy(_Right._Bx._Buf,
; 1851 : 					this->_Bx._Buf, this->_Mysize + 1);
; 1852 : 				this->_Getal().construct(&this->_Bx._Ptr, _Ptr);
; 1853 : 				}
; 1854 : 		}
; 1855 : 
; 1856 : 	void swap(_Myt& _Right)
; 1857 : 		{	// exchange contents with _Right
; 1858 : 		if (this == &_Right)
; 1859 : 			;	// same object, do nothing
; 1860 : 		else if (this->_Getal() == _Right._Getal())
; 1861 : 			{	// same allocator, swap control information
; 1862 : 			this->_Swap_all(_Right);
; 1863 : 			_Swap_bx(_Right);
; 1864 : 			_STD swap(this->_Mysize, _Right._Mysize);
; 1865 : 			_STD swap(this->_Myres, _Right._Myres);
; 1866 : 			}
; 1867 : 
; 1868 : 		else if (_Alty::propagate_on_container_swap::value)
; 1869 : 			{	// swap allocators and control information
; 1870 : 			this->_Swap_alloc(_Right);
; 1871 : 			_Swap_bx(_Right);
; 1872 : 			_STD swap(this->_Bx, _Right._Bx);	// pointer bitwise copyable?
; 1873 : 			_STD swap(this->_Mysize, _Right._Mysize);
; 1874 : 			_STD swap(this->_Myres, _Right._Myres);
; 1875 : 			}
; 1876 : 
; 1877 : 		else
; 1878 : 			{	// different allocator, do multiple assigns
; 1879 : 			_Myt _Tmp = *this;
; 1880 : 
; 1881 : 			*this = _Right;
; 1882 : 			_Right = _Tmp;
; 1883 : 			}
; 1884 : 		}
; 1885 : 
; 1886 : 	size_type find(const _Myt& _Right, size_type _Off = 0) const _NOEXCEPT
; 1887 : 		{	// look for _Right beginning at or after _Off
; 1888 : 		return (find(_Right._Myptr(), _Off, _Right.size()));
; 1889 : 		}
; 1890 : 
; 1891 : 	size_type find(const _Elem *_Ptr,
; 1892 : 		size_type _Off, size_type _Count) const
; 1893 : 		{	// look for [_Ptr, _Ptr + _Count) beginning at or after _Off
; 1894 :  #if _ITERATOR_DEBUG_LEVEL == 2
; 1895 : 		if (_Count != 0)
; 1896 : 			_DEBUG_POINTER(_Ptr);
; 1897 :  #endif /* _ITERATOR_DEBUG_LEVEL == 2 */
; 1898 : 
; 1899 : 		if (_Count == 0 && _Off <= this->_Mysize)
; 1900 : 			return (_Off);	// null string always matches (if inside string)
; 1901 : 
; 1902 : 		size_type _Nm;
; 1903 : 		if (_Off < this->_Mysize && _Count <= (_Nm = this->_Mysize - _Off))
; 1904 : 			{	// room for match, look for it
; 1905 : 			const _Elem *_Uptr, *_Vptr;
; 1906 : 			for (_Nm -= _Count - 1, _Vptr = this->_Myptr() + _Off;
; 1907 : 				(_Uptr = _Traits::find(_Vptr, _Nm, *_Ptr)) != 0;
; 1908 : 				_Nm -= _Uptr - _Vptr + 1, _Vptr = _Uptr + 1)
; 1909 : 				if (_Traits::compare(_Uptr, _Ptr, _Count) == 0)
; 1910 : 					return (_Uptr - this->_Myptr());	// found a match
; 1911 : 			}
; 1912 : 
; 1913 : 		return (npos);	// no match
; 1914 : 		}
; 1915 : 
; 1916 : 	size_type find(const _Elem *_Ptr, size_type _Off = 0) const
; 1917 : 		{	// look for [_Ptr, <null>) beginning at or after _Off
; 1918 : 		_DEBUG_POINTER(_Ptr);
; 1919 : 		return (find(_Ptr, _Off, _Traits::length(_Ptr)));
; 1920 : 		}
; 1921 : 
; 1922 : 	size_type find(_Elem _Ch, size_type _Off = 0) const
; 1923 : 		{	// look for _Ch at or after _Off
; 1924 : 		return (find((const _Elem *)&_Ch, _Off, 1));
; 1925 : 		}
; 1926 : 
; 1927 : 	size_type rfind(const _Myt& _Right, size_type _Off = npos) const _NOEXCEPT
; 1928 : 		{	// look for _Right beginning before _Off
; 1929 : 		return (rfind(_Right._Myptr(), _Off, _Right.size()));
; 1930 : 		}
; 1931 : 
; 1932 : 	size_type rfind(const _Elem *_Ptr,
; 1933 : 		size_type _Off, size_type _Count) const
; 1934 : 		{	// look for [_Ptr, _Ptr + _Count) beginning before _Off
; 1935 :  #if _ITERATOR_DEBUG_LEVEL == 2
; 1936 : 		if (_Count != 0)
; 1937 : 			_DEBUG_POINTER(_Ptr);
; 1938 :  #endif /* _ITERATOR_DEBUG_LEVEL == 2 */
; 1939 : 
; 1940 : 		if (_Count == 0)
; 1941 : 			return (_Off < this->_Mysize ? _Off
; 1942 : 				: this->_Mysize);	// null always matches
; 1943 : 		if (_Count <= this->_Mysize)
; 1944 : 			{	// room for match, look for it
; 1945 : 			const _Elem *_Uptr = this->_Myptr() +
; 1946 : 				(_Off < this->_Mysize - _Count ? _Off
; 1947 : 					: this->_Mysize - _Count);
; 1948 : 			for (; ; --_Uptr)
; 1949 : 				if (_Traits::eq(*_Uptr, *_Ptr)
; 1950 : 					&& _Traits::compare(_Uptr, _Ptr, _Count) == 0)
; 1951 : 					return (_Uptr - this->_Myptr());	// found a match
; 1952 : 				else if (_Uptr == this->_Myptr())
; 1953 : 					break;	// at beginning, no more chance for match
; 1954 : 			}
; 1955 : 
; 1956 : 		return (npos);	// no match
; 1957 : 		}
; 1958 : 
; 1959 : 	size_type rfind(const _Elem *_Ptr, size_type _Off = npos) const
; 1960 : 		{	// look for [_Ptr, <null>) beginning before _Off
; 1961 : 		_DEBUG_POINTER(_Ptr);
; 1962 : 		return (rfind(_Ptr, _Off, _Traits::length(_Ptr)));
; 1963 : 		}
; 1964 : 
; 1965 : 	size_type rfind(_Elem _Ch, size_type _Off = npos) const
; 1966 : 		{	// look for _Ch before _Off
; 1967 : 		return (rfind((const _Elem *)&_Ch, _Off, 1));
; 1968 : 		}
; 1969 : 
; 1970 : 	size_type find_first_of(const _Myt& _Right,
; 1971 : 		size_type _Off = 0) const _NOEXCEPT
; 1972 : 		{	// look for one of _Right at or after _Off
; 1973 : 		return (find_first_of(_Right._Myptr(), _Off, _Right.size()));
; 1974 : 		}
; 1975 : 
; 1976 : 	size_type find_first_of(const _Elem *_Ptr,
; 1977 : 		size_type _Off, size_type _Count) const
; 1978 : 		{	// look for one of [_Ptr, _Ptr + _Count) at or after _Off
; 1979 :  #if _ITERATOR_DEBUG_LEVEL == 2
; 1980 : 		if (_Count != 0)
; 1981 : 			_DEBUG_POINTER(_Ptr);
; 1982 :  #endif /* _ITERATOR_DEBUG_LEVEL == 2 */
; 1983 : 
; 1984 : 		if (0 < _Count && _Off < this->_Mysize)
; 1985 : 			{	// room for match, look for it
; 1986 : 			const _Elem *const _Vptr = this->_Myptr() + this->_Mysize;
; 1987 : 			for (const _Elem *_Uptr = this->_Myptr() + _Off;
; 1988 : 				_Uptr < _Vptr; ++_Uptr)
; 1989 : 				if (_Traits::find(_Ptr, _Count, *_Uptr) != 0)
; 1990 : 					return (_Uptr - this->_Myptr());	// found a match
; 1991 : 			}
; 1992 : 
; 1993 : 		return (npos);	// no match
; 1994 : 		}
; 1995 : 
; 1996 : 	size_type find_first_of(const _Elem *_Ptr,
; 1997 : 		size_type _Off = 0) const
; 1998 : 		{	// look for one of [_Ptr, <null>) at or after _Off
; 1999 : 		_DEBUG_POINTER(_Ptr);
; 2000 : 		return (find_first_of(_Ptr, _Off, _Traits::length(_Ptr)));
; 2001 : 		}
; 2002 : 
; 2003 : 	size_type find_first_of(_Elem _Ch,
; 2004 : 		size_type _Off = 0) const
; 2005 : 		{	// look for _Ch at or after _Off
; 2006 : 		return (find((const _Elem *)&_Ch, _Off, 1));
; 2007 : 		}
; 2008 : 
; 2009 : 	size_type find_last_of(const _Myt& _Right,
; 2010 : 		size_type _Off = npos) const _NOEXCEPT
; 2011 : 		{	// look for one of _Right before _Off
; 2012 : 		return (find_last_of(_Right._Myptr(), _Off, _Right.size()));
; 2013 : 		}
; 2014 : 
; 2015 : 	size_type find_last_of(const _Elem *_Ptr,
; 2016 : 		size_type _Off, size_type _Count) const
; 2017 : 		{	// look for one of [_Ptr, _Ptr + _Count) before _Off
; 2018 :  #if _ITERATOR_DEBUG_LEVEL == 2
; 2019 : 		if (_Count != 0)
; 2020 : 			_DEBUG_POINTER(_Ptr);
; 2021 :  #endif /* _ITERATOR_DEBUG_LEVEL == 2 */
; 2022 : 
; 2023 : 		if (0 < _Count && 0 < this->_Mysize)
; 2024 : 			{	// worth searching, do it
; 2025 : 			const _Elem *_Uptr = this->_Myptr()
; 2026 : 				+ (_Off < this->_Mysize ? _Off : this->_Mysize - 1);
; 2027 : 			for (; ; --_Uptr)
; 2028 : 				if (_Traits::find(_Ptr, _Count, *_Uptr) != 0)
; 2029 : 					return (_Uptr - this->_Myptr());	// found a match
; 2030 : 				else if (_Uptr == this->_Myptr())
; 2031 : 					break;	// at beginning, no more chance for match
; 2032 : 			}
; 2033 : 
; 2034 : 		return (npos);	// no match
; 2035 : 		}
; 2036 : 
; 2037 : 	size_type find_last_of(const _Elem *_Ptr,
; 2038 : 		size_type _Off = npos) const
; 2039 : 		{	// look for one of [_Ptr, <null>) before _Off
; 2040 : 		_DEBUG_POINTER(_Ptr);
; 2041 : 		return (find_last_of(_Ptr, _Off, _Traits::length(_Ptr)));
; 2042 : 		}
; 2043 : 
; 2044 : 	size_type find_last_of(_Elem _Ch,
; 2045 : 		size_type _Off = npos) const
; 2046 : 		{	// look for _Ch before _Off
; 2047 : 		return (rfind((const _Elem *)&_Ch, _Off, 1));
; 2048 : 		}
; 2049 : 
; 2050 : 	size_type find_first_not_of(const _Myt& _Right,
; 2051 : 		size_type _Off = 0) const _NOEXCEPT
; 2052 : 		{	// look for none of _Right at or after _Off
; 2053 : 		return (find_first_not_of(_Right._Myptr(), _Off,
; 2054 : 			_Right.size()));
; 2055 : 		}
; 2056 : 
; 2057 : 	size_type find_first_not_of(const _Elem *_Ptr,
; 2058 : 		size_type _Off, size_type _Count) const
; 2059 : 		{	// look for none of [_Ptr, _Ptr + _Count) at or after _Off
; 2060 :  #if _ITERATOR_DEBUG_LEVEL == 2
; 2061 : 		if (_Count != 0)
; 2062 : 			_DEBUG_POINTER(_Ptr);
; 2063 :  #endif /* _ITERATOR_DEBUG_LEVEL == 2 */
; 2064 : 
; 2065 : 		if (_Off < this->_Mysize)
; 2066 : 			{	// room for match, look for it
; 2067 : 			const _Elem *const _Vptr = this->_Myptr() + this->_Mysize;
; 2068 : 			for (const _Elem *_Uptr = this->_Myptr() + _Off;
; 2069 : 				_Uptr < _Vptr; ++_Uptr)
; 2070 : 				if (_Traits::find(_Ptr, _Count, *_Uptr) == 0)
; 2071 : 					return (_Uptr - this->_Myptr());
; 2072 : 			}
; 2073 : 		return (npos);
; 2074 : 		}
; 2075 : 
; 2076 : 	size_type find_first_not_of(const _Elem *_Ptr,
; 2077 : 		size_type _Off = 0) const
; 2078 : 		{	// look for one of [_Ptr, <null>) at or after _Off
; 2079 : 		_DEBUG_POINTER(_Ptr);
; 2080 : 		return (find_first_not_of(_Ptr, _Off, _Traits::length(_Ptr)));
; 2081 : 		}
; 2082 : 
; 2083 : 	size_type find_first_not_of(_Elem _Ch,
; 2084 : 		size_type _Off = 0) const
; 2085 : 		{	// look for non _Ch at or after _Off
; 2086 : 		return (find_first_not_of((const _Elem *)&_Ch, _Off, 1));
; 2087 : 		}
; 2088 : 
; 2089 : 	size_type find_last_not_of(const _Myt& _Right,
; 2090 : 		size_type _Off = npos) const _NOEXCEPT
; 2091 : 		{	// look for none of _Right before _Off
; 2092 : 		return (find_last_not_of(_Right._Myptr(), _Off, _Right.size()));
; 2093 : 		}
; 2094 : 
; 2095 : 	size_type find_last_not_of(const _Elem *_Ptr,
; 2096 : 		size_type _Off, size_type _Count) const
; 2097 : 		{	// look for none of [_Ptr, _Ptr + _Count) before _Off
; 2098 :  #if _ITERATOR_DEBUG_LEVEL == 2
; 2099 : 		if (_Count != 0)
; 2100 : 			_DEBUG_POINTER(_Ptr);
; 2101 :  #endif /* _ITERATOR_DEBUG_LEVEL == 2 */
; 2102 : 
; 2103 : 		if (0 < this->_Mysize)
; 2104 : 			{	// worth searching, do it
; 2105 : 			const _Elem *_Uptr = this->_Myptr()
; 2106 : 				+ (_Off < this->_Mysize ? _Off : this->_Mysize - 1);
; 2107 : 			for (; ; --_Uptr)
; 2108 : 				if (_Traits::find(_Ptr, _Count, *_Uptr) == 0)
; 2109 : 					return (_Uptr - this->_Myptr());
; 2110 : 				else if (_Uptr == this->_Myptr())
; 2111 : 					break;
; 2112 : 			}
; 2113 : 		return (npos);
; 2114 : 		}
; 2115 : 
; 2116 : 	size_type find_last_not_of(const _Elem *_Ptr,
; 2117 : 		size_type _Off = npos) const
; 2118 : 		{	// look for none of [_Ptr, <null>) before _Off
; 2119 : 		_DEBUG_POINTER(_Ptr);
; 2120 : 		return (find_last_not_of(_Ptr, _Off, _Traits::length(_Ptr)));
; 2121 : 		}
; 2122 : 
; 2123 : 	size_type find_last_not_of(_Elem _Ch,
; 2124 : 		size_type _Off = npos) const
; 2125 : 		{	// look for non _Ch before _Off
; 2126 : 		return (find_last_not_of((const _Elem *)&_Ch, _Off, 1));
; 2127 : 		}
; 2128 : 
; 2129 : 	_Myt substr(size_type _Off = 0, size_type _Count = npos) const
; 2130 : 		{	// return [_Off, _Off + _Count) as new string
; 2131 : 		return (_Myt(*this, _Off, _Count, get_allocator()));
; 2132 : 		}
; 2133 : 
; 2134 : 	int compare(const _Myt& _Right) const _NOEXCEPT
; 2135 : 		{	// compare [0, _Mysize) with _Right
; 2136 : 		return (compare(0, this->_Mysize, _Right._Myptr(), _Right.size()));
; 2137 : 		}
; 2138 : 
; 2139 : 	int compare(size_type _Off, size_type _N0,
; 2140 : 		const _Myt& _Right) const
; 2141 : 		{	// compare [_Off, _Off + _N0) with _Right
; 2142 : 		return (compare(_Off, _N0, _Right, 0, npos));
; 2143 : 		}
; 2144 : 
; 2145 : 	int compare(size_type _Off,
; 2146 : 		size_type _N0, const _Myt& _Right,
; 2147 : 		size_type _Roff, size_type _Count) const
; 2148 : 		{	// compare [_Off, _Off + _N0) with _Right [_Roff, _Roff + _Count)
; 2149 : 		if (_Right.size() < _Roff)
; 2150 : 			_Xran();	// _Off off end
; 2151 : 		if (_Right._Mysize - _Roff < _Count)
; 2152 : 			_Count = _Right._Mysize - _Roff;	// trim _Count to size
; 2153 : 		return (compare(_Off, _N0, _Right._Myptr() + _Roff, _Count));
; 2154 : 		}
; 2155 : 
; 2156 : 	int compare(const _Elem *_Ptr) const
; 2157 : 		{	// compare [0, _Mysize) with [_Ptr, <null>)
; 2158 : 		_DEBUG_POINTER(_Ptr);
; 2159 : 		return (compare(0, this->_Mysize, _Ptr, _Traits::length(_Ptr)));
; 2160 : 		}
; 2161 : 
; 2162 : 	int compare(size_type _Off, size_type _N0, const _Elem *_Ptr) const
; 2163 : 		{	// compare [_Off, _Off + _N0) with [_Ptr, <null>)
; 2164 : 		_DEBUG_POINTER(_Ptr);
; 2165 : 		return (compare(_Off, _N0, _Ptr, _Traits::length(_Ptr)));
; 2166 : 		}
; 2167 : 
; 2168 : 	int compare(size_type _Off,
; 2169 : 		size_type _N0, const _Elem *_Ptr, size_type _Count) const
; 2170 : 		{	// compare [_Off, _Off + _N0) with [_Ptr, _Ptr + _Count)
; 2171 :  #if _ITERATOR_DEBUG_LEVEL == 2
; 2172 : 		if (_Count != 0)
; 2173 : 			_DEBUG_POINTER(_Ptr);
; 2174 :  #endif /* _ITERATOR_DEBUG_LEVEL == 2 */
; 2175 : 
; 2176 : 		if (this->_Mysize < _Off)
; 2177 : 			_Xran();	// _Off off end
; 2178 : 		if (this->_Mysize - _Off < _N0)
; 2179 : 			_N0 = this->_Mysize - _Off;	// trim _N0 to size
; 2180 : 
; 2181 : 		size_type _Ans = _Traits::compare(this->_Myptr() + _Off, _Ptr,
; 2182 : 			_N0 < _Count ? _N0 : _Count);
; 2183 : 		return (_Ans != 0 ? (int)_Ans : _N0 < _Count ? -1
; 2184 : 			: _N0 == _Count ? 0 : +1);
; 2185 : 		}
; 2186 : 
; 2187 : 	allocator_type get_allocator() const _NOEXCEPT
; 2188 : 		{	// return allocator object for values
; 2189 : 		return (this->_Getal());
; 2190 : 		}
; 2191 : 
; 2192 : 	void _Chassign(size_type _Off, size_type _Count, _Elem _Ch)
; 2193 : 		{	// assign _Count copies of _Ch beginning at _Off
; 2194 : 		if (_Count == 1)
; 2195 : 			_Traits::assign(*(this->_Myptr() + _Off), _Ch);
; 2196 : 		else
; 2197 : 			_Traits::assign(this->_Myptr() + _Off, _Count, _Ch);
; 2198 : 		}
; 2199 : 
; 2200 : 	void _Copy(size_type _Newsize, size_type _Oldlen)
; 2201 : 		{	// copy _Oldlen elements to newly allocated buffer
; 2202 : 		size_type _Newres = _Newsize | this->_ALLOC_MASK;
; 2203 : 		if (max_size() < _Newres)
; 2204 : 			_Newres = _Newsize;	// undo roundup if too big
; 2205 : 		else if (this->_Myres / 2 <= _Newres / 3)
; 2206 : 			;
; 2207 : 		else if (this->_Myres <= max_size() - this->_Myres / 2)
; 2208 : 			_Newres = this->_Myres
; 2209 : 				+ this->_Myres / 2;	// grow exponentially if possible
; 2210 : 		else
; 2211 : 			_Newres = max_size();	// settle for max_size()
; 2212 : 
; 2213 : 		_Elem *_Ptr;
; 2214 : 		_TRY_BEGIN
; 2215 : 			_Ptr = this->_Getal().allocate(_Newres + 1);
; 2216 : 		_CATCH_ALL
; 2217 : 			_Newres = _Newsize;	// allocation failed, undo roundup and retry
; 2218 : 			_TRY_BEGIN
; 2219 : 				_Ptr = this->_Getal().allocate(_Newres + 1);
; 2220 : 			_CATCH_ALL
; 2221 : 			_Tidy(true);	// failed again, discard storage and reraise
; 2222 : 			_RERAISE;
; 2223 : 			_CATCH_END
; 2224 : 		_CATCH_END
; 2225 : 
; 2226 : 		if (0 < _Oldlen)
; 2227 : 			_Traits::copy(_Ptr, this->_Myptr(),
; 2228 : 				_Oldlen);	// copy existing elements
; 2229 : 		_Tidy(true);
; 2230 : 		this->_Getal().construct(&this->_Bx._Ptr, _Ptr);
; 2231 : 		this->_Myres = _Newres;
; 2232 : 		_Eos(_Oldlen);
; 2233 : 		}
; 2234 : 
; 2235 : 	void _Eos(size_type _Newsize)
; 2236 : 		{	// set new length and null terminator
; 2237 : 		_Traits::assign(this->_Myptr()[this->_Mysize = _Newsize], _Elem());

	mov	QWORD PTR $T1[rsp+16], r14
; File c:\program files (x86)\microsoft visual studio 12.0\vc\include\iosfwd

; 564  : 		_Left = _Right;

	mov	BYTE PTR $T1[rsp], r14b
; File c:\program files (x86)\microsoft visual studio 12.0\vc\include\xstring

; 1169 : 		return (assign(_Ptr, _Traits::length(_Ptr)));

	mov	r8d, 40					; 00000028H
	lea	rdx, OFFSET FLAT:??_C@_0CJ@PMIKKCGP@IOCompletion?5type?5?$HL0?$HN?5is?5not?5rec@
	lea	rcx, QWORD PTR $T1[rsp]
	call	?assign@?$basic_string@DU?$char_traits@D@std@@V?$allocator@D@2@@std@@QEAAAEAV12@PEBD_K@Z ; std::basic_string<char,std::char_traits<char>,std::allocator<char> >::assign
	npad	1
; File d:\home\src\trinity\projects\trinity.lib\trinity\diagnostics\log.h

; 66   :             _writeline_impl(logLevel, String::Format(format, arguments...));

	mov	r8d, esi
	lea	rdx, QWORD PTR $T1[rsp]
	lea	rcx, QWORD PTR $T2[rsp]
	call	??$Format@I@String@Trinity@@SA?AV01@AEBV01@I@Z ; Trinity::String::Format<unsigned int>
	npad	1
	mov	rdx, rax
	mov	ecx, 2
	call	?_writeline_impl@Diagnostics@Trinity@@YAXW4LogLevel@12@AEBVString@2@@Z ; Trinity::Diagnostics::_writeline_impl
	npad	1
; File c:\program files (x86)\microsoft visual studio 12.0\vc\include\xstring

; 2275 : 		else if (this->_BUF_SIZE <= this->_Myres)

	cmp	QWORD PTR $T2[rsp+24], 16
	jb	SHORT $LN109@ProcessIOC
; File c:\program files (x86)\microsoft visual studio 12.0\vc\include\xmemory0

; 573  : 		::operator delete(_Ptr);

	mov	rcx, QWORD PTR $T2[rsp]
	call	??3@YAXPEAX@Z				; operator delete
$LN109@ProcessIOC:
; File c:\program files (x86)\microsoft visual studio 12.0\vc\include\xstring

; 2284 : 		this->_Myres = this->_BUF_SIZE - 1;

	mov	QWORD PTR $T2[rsp+24], 15

; 1170 : 		}
; 1171 : 
; 1172 : 	_Myt& assign(size_type _Count, _Elem _Ch)
; 1173 : 		{	// assign _Count * _Ch
; 1174 : 		if (_Count == npos)
; 1175 : 			_Xlen();	// result too long
; 1176 : 
; 1177 : 		if (_Grow(_Count))
; 1178 : 			{	// make room and assign new stuff
; 1179 : 			_Chassign(0, _Count, _Ch);
; 1180 : 			_Eos(_Count);
; 1181 : 			}
; 1182 : 		return (*this);
; 1183 : 		}
; 1184 : 
; 1185 : 	template<class _Iter>
; 1186 : 		typename enable_if<_Is_iterator<_Iter>::value,
; 1187 : 			_Myt&>::type
; 1188 : 		assign(_Iter _First, _Iter _Last)
; 1189 : 		{	// assign [_First, _Last), input iterators
; 1190 : 		return (replace(begin(), end(), _First, _Last));
; 1191 : 		}
; 1192 : 
; 1193 : 	_Myt& assign(const_pointer _First, const_pointer _Last)
; 1194 : 		{	// assign [_First, _Last), const pointers
; 1195 : 		return (replace(begin(), end(), _First, _Last));
; 1196 : 		}
; 1197 : 
; 1198 : 	_Myt& assign(const_iterator _First, const_iterator _Last)
; 1199 : 		{	// assign [_First, _Last), const_iterators
; 1200 : 		return (replace(begin(), end(), _First, _Last));
; 1201 : 		}
; 1202 : 
; 1203 : 	_Myt& insert(size_type _Off, const _Myt& _Right)
; 1204 : 		{	// insert _Right at _Off
; 1205 : 		return (insert(_Off, _Right, 0, npos));
; 1206 : 		}
; 1207 : 
; 1208 : 	_Myt& insert(size_type _Off,
; 1209 : 		const _Myt& _Right, size_type _Roff, size_type _Count)
; 1210 : 		{	// insert _Right [_Roff, _Roff + _Count) at _Off
; 1211 : 		if (this->_Mysize < _Off || _Right.size() < _Roff)
; 1212 : 			_Xran();	// _Off or _Roff off end
; 1213 : 		size_type _Num = _Right.size() - _Roff;
; 1214 : 		if (_Num < _Count)
; 1215 : 			_Count = _Num;	// trim _Count to size
; 1216 : 		if (npos - this->_Mysize <= _Count)
; 1217 : 			_Xlen();	// result too long
; 1218 : 
; 1219 : 		if (0 < _Count && _Grow(_Num = this->_Mysize + _Count))
; 1220 : 			{	// make room and insert new stuff
; 1221 : 			_Traits::move(this->_Myptr() + _Off + _Count,
; 1222 : 				this->_Myptr() + _Off,
; 1223 : 				this->_Mysize - _Off);	// empty out hole
; 1224 : 			if (this == &_Right)
; 1225 : 				_Traits::move(this->_Myptr() + _Off,
; 1226 : 					this->_Myptr() + (_Off < _Roff ? _Roff + _Count : _Roff),
; 1227 : 						_Count);	// substring
; 1228 : 			else
; 1229 : 				_Traits::copy(this->_Myptr() + _Off,
; 1230 : 					_Right._Myptr() + _Roff, _Count);	// fill hole
; 1231 : 			_Eos(_Num);
; 1232 : 			}
; 1233 : 		return (*this);
; 1234 : 		}
; 1235 : 
; 1236 : 	_Myt& insert(size_type _Off,
; 1237 : 		const _Elem *_Ptr, size_type _Count)
; 1238 : 		{	// insert [_Ptr, _Ptr + _Count) at _Off
; 1239 :  #if _ITERATOR_DEBUG_LEVEL == 2
; 1240 : 		if (_Count != 0)
; 1241 : 			_DEBUG_POINTER(_Ptr);
; 1242 :  #endif /* _ITERATOR_DEBUG_LEVEL == 2 */
; 1243 : 
; 1244 : 		if (_Inside(_Ptr))
; 1245 : 			return (insert(_Off, *this,
; 1246 : 				_Ptr - this->_Myptr(), _Count));	// substring
; 1247 : 		if (this->_Mysize < _Off)
; 1248 : 			_Xran();	// _Off off end
; 1249 : 		if (npos - this->_Mysize <= _Count)
; 1250 : 			_Xlen();	// result too long
; 1251 : 		size_type _Num;
; 1252 : 		if (0 < _Count && _Grow(_Num = this->_Mysize + _Count))
; 1253 : 			{	// make room and insert new stuff
; 1254 : 			_Traits::move(this->_Myptr() + _Off + _Count,
; 1255 : 				this->_Myptr() + _Off,
; 1256 : 				this->_Mysize - _Off);	// empty out hole
; 1257 : 			_Traits::copy(this->_Myptr() + _Off, _Ptr, _Count);	// fill hole
; 1258 : 			_Eos(_Num);
; 1259 : 			}
; 1260 : 		return (*this);
; 1261 : 		}
; 1262 : 
; 1263 : 	_Myt& insert(size_type _Off, const _Elem *_Ptr)
; 1264 : 		{	// insert [_Ptr, <null>) at _Off
; 1265 : 		_DEBUG_POINTER(_Ptr);
; 1266 : 		return (insert(_Off, _Ptr, _Traits::length(_Ptr)));
; 1267 : 		}
; 1268 : 
; 1269 : 	_Myt& insert(size_type _Off,
; 1270 : 		size_type _Count, _Elem _Ch)
; 1271 : 		{	// insert _Count * _Ch at _Off
; 1272 : 		if (this->_Mysize < _Off)
; 1273 : 			_Xran();	// _Off off end
; 1274 : 		if (npos - this->_Mysize <= _Count)
; 1275 : 			_Xlen();	// result too long
; 1276 : 		size_type _Num;
; 1277 : 		if (0 < _Count && _Grow(_Num = this->_Mysize + _Count))
; 1278 : 			{	// make room and insert new stuff
; 1279 : 			_Traits::move(this->_Myptr() + _Off + _Count,
; 1280 : 				this->_Myptr() + _Off,
; 1281 : 				this->_Mysize - _Off);	// empty out hole
; 1282 : 			_Chassign(_Off, _Count, _Ch);	// fill hole
; 1283 : 			_Eos(_Num);
; 1284 : 			}
; 1285 : 		return (*this);
; 1286 : 		}
; 1287 : 
; 1288 : 	iterator insert(const_iterator _Where)
; 1289 : 		{	// insert <null> at _Where
; 1290 : 		return (insert(_Where, _Elem()));
; 1291 : 		}
; 1292 : 
; 1293 : 	iterator insert(const_iterator _Where, _Elem _Ch)
; 1294 : 		{	// insert _Ch at _Where
; 1295 : 		size_type _Off = _Pdif(_Where, begin());
; 1296 : 		insert(_Off, 1, _Ch);
; 1297 : 		return (begin() + _Off);
; 1298 : 		}
; 1299 : 
; 1300 : 	iterator insert(const_iterator _Where, size_type _Count, _Elem _Ch)
; 1301 : 		{	// insert _Count * _Elem at _Where
; 1302 : 		size_type _Off = _Pdif(_Where, begin());
; 1303 : 		insert(_Off, _Count, _Ch);
; 1304 : 		return (begin() + _Off);
; 1305 : 		}
; 1306 : 
; 1307 : 	template<class _Iter>
; 1308 : 		typename enable_if<_Is_iterator<_Iter>::value,
; 1309 : 			iterator>::type
; 1310 : 		insert(const_iterator _Where, _Iter _First, _Iter _Last)
; 1311 : 		{	// insert [_First, _Last) at _Where, input iterators
; 1312 : 		size_type _Off = _Pdif(_Where, begin());
; 1313 : 		replace(_Where, _Where, _First, _Last);
; 1314 : 		return (begin() + _Off);
; 1315 : 		}
; 1316 : 
; 1317 : 	iterator insert(const_iterator _Where,
; 1318 : 		const_pointer _First, const_pointer _Last)
; 1319 : 		{	// insert [_First, _Last) at _Where, const pointers
; 1320 : 		size_type _Off = _Pdif(_Where, begin());
; 1321 : 		replace(_Where, _Where, _First, _Last);
; 1322 : 		return (begin() + _Off);
; 1323 : 		}
; 1324 : 
; 1325 : 	iterator insert(const_iterator _Where,
; 1326 : 		const_iterator _First, const_iterator _Last)
; 1327 : 		{	// insert [_First, _Last) at _Where, const_iterators
; 1328 : 		size_type _Off = _Pdif(_Where, begin());
; 1329 : 		replace(_Where, _Where, _First, _Last);
; 1330 : 		return (begin() + _Off);
; 1331 : 		}
; 1332 : 
; 1333 : 	_Myt& erase(size_type _Off = 0)
; 1334 : 		{	// erase elements [_Off, ...)
; 1335 : 		if (this->_Mysize < _Off)
; 1336 : 			_Xran();	// _Off off end
; 1337 : 		_Eos(_Off);
; 1338 : 		return (*this);
; 1339 : 		}
; 1340 : 
; 1341 : 	_Myt& erase(size_type _Off, size_type _Count)
; 1342 : 		{	// erase elements [_Off, _Off + _Count)
; 1343 : 		if (this->_Mysize < _Off)
; 1344 : 			_Xran();	// _Off off end
; 1345 : 		if (this->_Mysize - _Off <= _Count)
; 1346 : 			_Eos(_Off);	// erase elements [_Off, ...)
; 1347 : 		else if (0 < _Count)
; 1348 : 			{	// move elements down
; 1349 : 			value_type *_Ptr = this->_Myptr() + _Off;
; 1350 : 			size_type _Newsize = this->_Mysize - _Count;
; 1351 : 			_Traits::move(_Ptr, _Ptr + _Count, _Newsize - _Off);
; 1352 : 			_Eos(_Newsize);
; 1353 : 			}
; 1354 : 		return (*this);
; 1355 : 		}
; 1356 : 
; 1357 : 	iterator erase(const_iterator _Where)
; 1358 : 		{	// erase element at _Where
; 1359 : 		size_type _Count = _Pdif(_Where, begin());
; 1360 : 		erase(_Count, 1);
; 1361 : 		return (_STRING_ITERATOR(this->_Myptr() + _Count));
; 1362 : 		}
; 1363 : 
; 1364 : 	iterator erase(const_iterator _First, const_iterator _Last)
; 1365 : 		{	// erase substring [_First, _Last)
; 1366 : 		_DEBUG_RANGE(_First, _Last);
; 1367 : 		size_type _Count = _Pdif(_First, begin());
; 1368 : 		erase(_Count, _Pdif(_Last, _First));
; 1369 : 		return (_STRING_ITERATOR(this->_Myptr() + _Count));
; 1370 : 		}
; 1371 : 
; 1372 : 	void clear() _NOEXCEPT
; 1373 : 		{	// erase all
; 1374 : 		_Eos(0);
; 1375 : 		}
; 1376 : 
; 1377 : 	_Myt& replace(size_type _Off, size_type _N0, const _Myt& _Right)
; 1378 : 		{	// replace [_Off, _Off + _N0) with _Right
; 1379 : 		return (replace(_Off, _N0, _Right, 0, npos));
; 1380 : 		}
; 1381 : 
; 1382 : 	_Myt& replace(size_type _Off,
; 1383 : 		size_type _N0, const _Myt& _Right, size_type _Roff, size_type _Count)
; 1384 : 		{	// replace [_Off, _Off + _N0) with _Right [_Roff, _Roff + _Count)
; 1385 : 		if (this->_Mysize < _Off || _Right.size() < _Roff)
; 1386 : 			_Xran();	// _Off or _Roff off end
; 1387 : 		if (this->_Mysize - _Off < _N0)
; 1388 : 			_N0 = this->_Mysize - _Off;	// trim _N0 to size
; 1389 : 		size_type _Num = _Right.size() - _Roff;
; 1390 : 		if (_Num < _Count)
; 1391 : 			_Count = _Num;	// trim _Count to size
; 1392 : 		if (npos - _Count <= this->_Mysize - _N0)
; 1393 : 			_Xlen();	// result too long
; 1394 : 
; 1395 : 		size_type _Nm = this->_Mysize - _N0 - _Off;	// length of kept tail
; 1396 : 		size_type _Newsize = this->_Mysize + _Count - _N0;
; 1397 : 		if (this->_Mysize < _Newsize)
; 1398 : 			_Grow(_Newsize);
; 1399 : 
; 1400 : 		if (this != &_Right)
; 1401 : 			{	// no overlap, just move down and copy in new stuff
; 1402 : 			_Traits::move(this->_Myptr() + _Off + _Count,
; 1403 : 				this->_Myptr() + _Off + _N0, _Nm);	// empty hole
; 1404 : 			_Traits::copy(this->_Myptr() + _Off,
; 1405 : 				_Right._Myptr() + _Roff, _Count);	// fill hole
; 1406 : 			}
; 1407 : 		else if (_Count <= _N0)
; 1408 : 			{	// hole doesn't get larger, just copy in substring
; 1409 : 			_Traits::move(this->_Myptr() + _Off,
; 1410 : 				this->_Myptr() + _Roff, _Count);	// fill hole
; 1411 : 			_Traits::move(this->_Myptr() + _Off + _Count,
; 1412 : 				this->_Myptr() + _Off + _N0, _Nm);	// move tail down
; 1413 : 			}
; 1414 : 		else if (_Roff <= _Off)
; 1415 : 			{	// hole gets larger, substring begins before hole
; 1416 : 			_Traits::move(this->_Myptr() + _Off + _Count,
; 1417 : 				this->_Myptr() + _Off + _N0, _Nm);	// move tail down
; 1418 : 			_Traits::move(this->_Myptr() + _Off,
; 1419 : 				this->_Myptr() + _Roff, _Count);	// fill hole
; 1420 : 			}
; 1421 : 		else if (_Off + _N0 <= _Roff)
; 1422 : 			{	// hole gets larger, substring begins after hole
; 1423 : 			_Traits::move(this->_Myptr() + _Off + _Count,
; 1424 : 				this->_Myptr() + _Off + _N0, _Nm);	// move tail down
; 1425 : 			_Traits::move(this->_Myptr() + _Off,
; 1426 : 				this->_Myptr() + (_Roff + _Count - _N0),
; 1427 : 				_Count);	// fill hole
; 1428 : 			}
; 1429 : 		else
; 1430 : 			{	// hole gets larger, substring begins in hole
; 1431 : 			_Traits::move(this->_Myptr() + _Off,
; 1432 : 				this->_Myptr() + _Roff, _N0);	// fill old hole
; 1433 : 			_Traits::move(this->_Myptr() + _Off + _Count,
; 1434 : 				this->_Myptr() + _Off + _N0, _Nm);	// move tail down
; 1435 : 			_Traits::move(this->_Myptr() + _Off + _N0,
; 1436 : 				this->_Myptr() + _Roff + _Count,
; 1437 : 				_Count - _N0);	// fill rest of new hole
; 1438 : 			}
; 1439 : 
; 1440 : 		_Eos(_Newsize);
; 1441 : 		return (*this);
; 1442 : 		}
; 1443 : 
; 1444 : 	_Myt& replace(size_type _Off,
; 1445 : 		size_type _N0, const _Elem *_Ptr, size_type _Count)
; 1446 : 		{	// replace [_Off, _Off + _N0) with [_Ptr, _Ptr + _Count)
; 1447 :  #if _ITERATOR_DEBUG_LEVEL == 2
; 1448 : 		if (_Count != 0)
; 1449 : 			_DEBUG_POINTER(_Ptr);
; 1450 :  #endif /* _ITERATOR_DEBUG_LEVEL == 2 */
; 1451 : 
; 1452 : 		if (_Inside(_Ptr))
; 1453 : 			return (replace(_Off, _N0, *this,
; 1454 : 				_Ptr - this->_Myptr(),
; 1455 : 				_Count));	// substring, replace carefully
; 1456 : 		if (this->_Mysize < _Off)
; 1457 : 			_Xran();	// _Off off end
; 1458 : 		if (this->_Mysize - _Off < _N0)
; 1459 : 			_N0 = this->_Mysize - _Off;	// trim _N0 to size
; 1460 : 		if (npos - _Count <= this->_Mysize - _N0)
; 1461 : 			_Xlen();	// result too long
; 1462 : 		size_type _Nm = this->_Mysize - _N0 - _Off;
; 1463 : 
; 1464 : 		if (_Count < _N0)
; 1465 : 			_Traits::move(this->_Myptr() + _Off + _Count,
; 1466 : 				this->_Myptr() + _Off + _N0,
; 1467 : 				_Nm);	// smaller hole, move tail up
; 1468 : 		size_type _Num;
; 1469 : 		if ((0 < _Count || 0 < _N0)
; 1470 : 			&& _Grow(_Num = this->_Mysize + _Count - _N0))
; 1471 : 			{	// make room and rearrange
; 1472 : 			if (_N0 < _Count)
; 1473 : 				_Traits::move(this->_Myptr() + _Off + _Count,
; 1474 : 					this->_Myptr() + _Off + _N0, _Nm);	// move tail down
; 1475 : 			_Traits::copy(this->_Myptr() + _Off, _Ptr, _Count);	// fill hole
; 1476 : 			_Eos(_Num);
; 1477 : 			}
; 1478 : 		return (*this);
; 1479 : 		}
; 1480 : 
; 1481 : 	_Myt& replace(size_type _Off, size_type _N0, const _Elem *_Ptr)
; 1482 : 		{	// replace [_Off, _Off + _N0) with [_Ptr, <null>)
; 1483 : 		_DEBUG_POINTER(_Ptr);
; 1484 : 		return (replace(_Off, _N0, _Ptr, _Traits::length(_Ptr)));
; 1485 : 		}
; 1486 : 
; 1487 : 	_Myt& replace(size_type _Off,
; 1488 : 		size_type _N0, size_type _Count, _Elem _Ch)
; 1489 : 		{	// replace [_Off, _Off + _N0) with _Count * _Ch
; 1490 : 		if (this->_Mysize < _Off)
; 1491 : 			_Xran();	// _Off off end
; 1492 : 		if (this->_Mysize - _Off < _N0)
; 1493 : 			_N0 = this->_Mysize - _Off;	// trim _N0 to size
; 1494 : 		if (npos - _Count <= this->_Mysize - _N0)
; 1495 : 			_Xlen();	// result too long
; 1496 : 		size_type _Nm = this->_Mysize - _N0 - _Off;
; 1497 : 
; 1498 : 		if (_Count < _N0)
; 1499 : 			_Traits::move(this->_Myptr() + _Off + _Count,
; 1500 : 				this->_Myptr() + _Off + _N0,
; 1501 : 				_Nm);	// smaller hole, move tail up
; 1502 : 		size_type _Num;
; 1503 : 		if ((0 < _Count || 0 < _N0)
; 1504 : 			&& _Grow(_Num = this->_Mysize + _Count - _N0))
; 1505 : 			{	// make room and rearrange
; 1506 : 			if (_N0 < _Count)
; 1507 : 				_Traits::move(this->_Myptr() + _Off + _Count,
; 1508 : 					this->_Myptr() + _Off + _N0, _Nm);	// move tail down
; 1509 : 			_Chassign(_Off, _Count, _Ch);	// fill hole
; 1510 : 			_Eos(_Num);
; 1511 : 			}
; 1512 : 		return (*this);
; 1513 : 		}
; 1514 : 
; 1515 : 	_Myt& replace(const_iterator _First, const_iterator _Last,
; 1516 : 		const _Myt& _Right)
; 1517 : 		{	// replace [_First, _Last) with _Right
; 1518 : 		return (replace(
; 1519 : 			_Pdif(_First, begin()), _Pdif(_Last, _First), _Right));
; 1520 : 		}
; 1521 : 
; 1522 : 	_Myt& replace(const_iterator _First, const_iterator _Last,
; 1523 : 		const _Elem *_Ptr, size_type _Count)
; 1524 : 		{	// replace [_First, _Last) with [_Ptr, _Ptr + _Count)
; 1525 : 		return (replace(
; 1526 : 			_Pdif(_First, begin()), _Pdif(_Last, _First), _Ptr, _Count));
; 1527 : 		}
; 1528 : 
; 1529 : 	_Myt& replace(const_iterator _First, const_iterator _Last,
; 1530 : 		const _Elem *_Ptr)
; 1531 : 		{	// replace [_First, _Last) with [_Ptr, <null>)
; 1532 : 		return (replace(
; 1533 : 			_Pdif(_First, begin()), _Pdif(_Last, _First), _Ptr));
; 1534 : 		}
; 1535 : 
; 1536 : 	_Myt& replace(const_iterator _First, const_iterator _Last,
; 1537 : 		size_type _Count, _Elem _Ch)
; 1538 : 		{	// replace [_First, _Last) with _Count * _Ch
; 1539 : 		return (replace(
; 1540 : 			_Pdif(_First, begin()), _Pdif(_Last, _First), _Count, _Ch));
; 1541 : 		}
; 1542 : 
; 1543 : 	template<class _Iter>
; 1544 : 		typename enable_if<_Is_iterator<_Iter>::value,
; 1545 : 			_Myt&>::type
; 1546 : 		replace(const_iterator _First, const_iterator _Last,
; 1547 : 			_Iter _First2, _Iter _Last2)
; 1548 : 		{	// replace [_First, _Last) with [_First2, _Last2), input iterators
; 1549 : 		_Myt _Right(_First2, _Last2);
; 1550 : 		replace(_First, _Last, _Right);
; 1551 : 		return (*this);
; 1552 : 		}
; 1553 : 
; 1554 : 	_Myt& replace(const_iterator _First, const_iterator _Last,
; 1555 : 		const_pointer _First2, const_pointer _Last2)
; 1556 : 		{	// replace [_First, _Last) with [_First2, _Last2), const pointers
; 1557 : 		if (_First2 == _Last2)
; 1558 : 			erase(_Pdif(_First, begin()), _Pdif(_Last, _First));
; 1559 : 		else
; 1560 : 			replace(_Pdif(_First, begin()), _Pdif(_Last, _First),
; 1561 : 				&*_First2, _Last2 - _First2);
; 1562 : 		return (*this);
; 1563 : 		}
; 1564 : 
; 1565 : 	_Myt& replace(const_iterator _First, const_iterator _Last,
; 1566 : 		pointer _First2, pointer _Last2)
; 1567 : 		{	// replace [_First, _Last) with [_First2, _Last2), const pointers
; 1568 : 		if (_First2 == _Last2)
; 1569 : 			erase(_Pdif(_First, begin()), _Pdif(_Last, _First));
; 1570 : 		else
; 1571 : 			replace(_Pdif(_First, begin()), _Pdif(_Last, _First),
; 1572 : 				&*_First2, _Last2 - _First2);
; 1573 : 		return (*this);
; 1574 : 		}
; 1575 : 
; 1576 : 	_Myt& replace(const_iterator _First, const_iterator _Last,
; 1577 : 		const_iterator _First2, const_iterator _Last2)
; 1578 : 		{	// replace [_First, _Last) with [_First2, _Last2), const_iterators
; 1579 : 		if (_First2 == _Last2)
; 1580 : 			erase(_Pdif(_First, begin()), _Pdif(_Last, _First));
; 1581 : 		else
; 1582 : 			replace(_Pdif(_First, begin()), _Pdif(_Last, _First),
; 1583 : 				&*_First2, _Last2 - _First2);
; 1584 : 		return (*this);
; 1585 : 		}
; 1586 : 
; 1587 : 	_Myt& replace(const_iterator _First, const_iterator _Last,
; 1588 : 		iterator _First2, iterator _Last2)
; 1589 : 		{	// replace [_First, _Last) with [_First2, _Last2), const_iterators
; 1590 : 		if (_First2 == _Last2)
; 1591 : 			erase(_Pdif(_First, begin()), _Pdif(_Last, _First));
; 1592 : 		else
; 1593 : 			replace(_Pdif(_First, begin()), _Pdif(_Last, _First),
; 1594 : 				&*_First2, _Last2 - _First2);
; 1595 : 		return (*this);
; 1596 : 		}
; 1597 : 
; 1598 : 	iterator begin() _NOEXCEPT
; 1599 : 		{	// return iterator for beginning of mutable sequence
; 1600 : 		return (_STRING_ITERATOR(this->_Myptr()));
; 1601 : 		}
; 1602 : 
; 1603 : 	const_iterator begin() const _NOEXCEPT
; 1604 : 		{	// return iterator for beginning of nonmutable sequence
; 1605 : 		return (_STRING_CONST_ITERATOR(this->_Myptr()));
; 1606 : 		}
; 1607 : 
; 1608 : 	iterator end() _NOEXCEPT
; 1609 : 		{	// return iterator for end of mutable sequence
; 1610 : 		return (_STRING_ITERATOR(this->_Myptr() + this->_Mysize));
; 1611 : 		}
; 1612 : 
; 1613 : 	const_iterator end() const _NOEXCEPT
; 1614 : 		{	// return iterator for end of nonmutable sequence
; 1615 : 		return (_STRING_CONST_ITERATOR(this->_Myptr() + this->_Mysize));
; 1616 : 		}
; 1617 : 
; 1618 : 	reverse_iterator rbegin() _NOEXCEPT
; 1619 : 		{	// return iterator for beginning of reversed mutable sequence
; 1620 : 		return (reverse_iterator(end()));
; 1621 : 		}
; 1622 : 
; 1623 : 	const_reverse_iterator rbegin() const _NOEXCEPT
; 1624 : 		{	// return iterator for beginning of reversed nonmutable sequence
; 1625 : 		return (const_reverse_iterator(end()));
; 1626 : 		}
; 1627 : 
; 1628 : 	reverse_iterator rend() _NOEXCEPT
; 1629 : 		{	// return iterator for end of reversed mutable sequence
; 1630 : 		return (reverse_iterator(begin()));
; 1631 : 		}
; 1632 : 
; 1633 : 	const_reverse_iterator rend() const _NOEXCEPT
; 1634 : 		{	// return iterator for end of reversed nonmutable sequence
; 1635 : 		return (const_reverse_iterator(begin()));
; 1636 : 		}
; 1637 : 
; 1638 : 	const_iterator cbegin() const _NOEXCEPT
; 1639 : 		{	// return iterator for beginning of nonmutable sequence
; 1640 : 		return (((const _Myt *)this)->begin());
; 1641 : 		}
; 1642 : 
; 1643 : 	const_iterator cend() const _NOEXCEPT
; 1644 : 		{	// return iterator for end of nonmutable sequence
; 1645 : 		return (((const _Myt *)this)->end());
; 1646 : 		}
; 1647 : 
; 1648 : 	const_reverse_iterator crbegin() const _NOEXCEPT
; 1649 : 		{	// return iterator for beginning of reversed nonmutable sequence
; 1650 : 		return (((const _Myt *)this)->rbegin());
; 1651 : 		}
; 1652 : 
; 1653 : 	const_reverse_iterator crend() const _NOEXCEPT
; 1654 : 		{	// return iterator for end of reversed nonmutable sequence
; 1655 : 		return (((const _Myt *)this)->rend());
; 1656 : 		}
; 1657 : 
; 1658 : 	void shrink_to_fit()
; 1659 : 		{	// reduce capacity
; 1660 : 		if ((size() | this->_ALLOC_MASK) < capacity())
; 1661 : 			{	// worth shrinking, do it
; 1662 : 			_Myt _Tmp(*this);
; 1663 : 			swap(_Tmp);
; 1664 : 			}
; 1665 : 		}
; 1666 : 
; 1667 : 	reference at(size_type _Off)
; 1668 : 		{	// subscript mutable sequence with checking
; 1669 : 		if (this->_Mysize <= _Off)
; 1670 : 			_Xran();	// _Off off end
; 1671 : 		return (this->_Myptr()[_Off]);
; 1672 : 		}
; 1673 : 
; 1674 : 	const_reference at(size_type _Off) const
; 1675 : 		{	// subscript nonmutable sequence with checking
; 1676 : 		if (this->_Mysize <= _Off)
; 1677 : 			_Xran();	// _Off off end
; 1678 : 		return (this->_Myptr()[_Off]);
; 1679 : 		}
; 1680 : 
; 1681 : 	reference operator[](size_type _Off)
; 1682 : 		{	// subscript mutable sequence
; 1683 :  #if _ITERATOR_DEBUG_LEVEL == 2
; 1684 : 		if (this->_Mysize < _Off)	// sic
; 1685 : 			_DEBUG_ERROR("string subscript out of range");
; 1686 : 
; 1687 :  #elif _ITERATOR_DEBUG_LEVEL == 1
; 1688 : 		_SCL_SECURE_VALIDATE_RANGE(_Off <= this->_Mysize);	// sic
; 1689 :  #endif /* _ITERATOR_DEBUG_LEVEL == 2 */
; 1690 : 
; 1691 : 		return (this->_Myptr()[_Off]);
; 1692 : 		}
; 1693 : 
; 1694 : 	const_reference operator[](size_type _Off) const
; 1695 : 		{	// subscript nonmutable sequence
; 1696 :  #if _ITERATOR_DEBUG_LEVEL == 2
; 1697 : 		if (this->_Mysize < _Off)	// sic
; 1698 : 			_DEBUG_ERROR("string subscript out of range");
; 1699 : 
; 1700 :  #elif _ITERATOR_DEBUG_LEVEL == 1
; 1701 : 		_SCL_SECURE_VALIDATE_RANGE(_Off <= this->_Mysize);	// sic
; 1702 :  #endif /* _ITERATOR_DEBUG_LEVEL == 2 */
; 1703 : 
; 1704 : 		return (this->_Myptr()[_Off]);
; 1705 : 		}
; 1706 : 
; 1707 : 	void push_back(_Elem _Ch)
; 1708 : 		{	// insert element at end
; 1709 : 		insert(end(), _Ch);
; 1710 : 		}
; 1711 : 
; 1712 : 	void pop_back()
; 1713 : 		{	// erase element at end
; 1714 : 		erase(this->_Mysize - 1);	// throws if _Mysize == 0
; 1715 : 		}
; 1716 : 
; 1717 : 	reference front()
; 1718 : 		{	// return first element of mutable sequence
; 1719 : 		return (*begin());
; 1720 : 		}
; 1721 : 
; 1722 : 	const_reference front() const
; 1723 : 		{	// return first element of nonmutable sequence
; 1724 : 		return (*begin());
; 1725 : 		}
; 1726 : 
; 1727 : 	reference back()
; 1728 : 		{	// return last element of mutable sequence
; 1729 : 		return (*(end() - 1));
; 1730 : 		}
; 1731 : 
; 1732 : 	const_reference back() const
; 1733 : 		{	// return last element of nonmutable sequence
; 1734 : 		return (*(end() - 1));
; 1735 : 		}
; 1736 : 
; 1737 : 	const _Elem *c_str() const _NOEXCEPT
; 1738 : 		{	// return pointer to null-terminated nonmutable array
; 1739 : 		return (this->_Myptr());
; 1740 : 		}
; 1741 : 
; 1742 : 	const _Elem *data() const _NOEXCEPT
; 1743 : 		{	// return pointer to nonmutable array
; 1744 : 		return (c_str());
; 1745 : 		}
; 1746 : 
; 1747 : 	size_type length() const _NOEXCEPT
; 1748 : 		{	// return length of sequence
; 1749 : 		return (this->_Mysize);
; 1750 : 		}
; 1751 : 
; 1752 : 	size_type size() const _NOEXCEPT
; 1753 : 		{	// return length of sequence
; 1754 : 		return (this->_Mysize);
; 1755 : 		}
; 1756 : 
; 1757 : 	size_type max_size() const _NOEXCEPT
; 1758 : 		{	// return maximum possible length of sequence
; 1759 : 		size_type _Num = this->_Getal().max_size();
; 1760 : 		return (_Num <= 1 ? 1 : _Num - 1);
; 1761 : 		}
; 1762 : 
; 1763 : 	void resize(size_type _Newsize)
; 1764 : 		{	// determine new length, padding with null elements as needed
; 1765 : 		resize(_Newsize, _Elem());
; 1766 : 		}
; 1767 : 
; 1768 : 	void resize(size_type _Newsize, _Elem _Ch)
; 1769 : 		{	// determine new length, padding with _Ch elements as needed
; 1770 : 		if (_Newsize <= this->_Mysize)
; 1771 : 			_Eos(_Newsize);
; 1772 : 		else
; 1773 : 			append(_Newsize - this->_Mysize, _Ch);
; 1774 : 		}
; 1775 : 
; 1776 : 	size_type capacity() const _NOEXCEPT
; 1777 : 		{	// return current length of allocated storage
; 1778 : 		return (this->_Myres);
; 1779 : 		}
; 1780 : 
; 1781 : 	void reserve(size_type _Newcap = 0)
; 1782 : 		{	// determine new minimum length of allocated storage
; 1783 : 		if (this->_Mysize <= _Newcap && this->_Myres != _Newcap)
; 1784 : 			{	// change reservation
; 1785 : 			size_type _Size = this->_Mysize;
; 1786 : 			if (_Grow(_Newcap, true))
; 1787 : 				_Eos(_Size);
; 1788 : 			}
; 1789 : 		}
; 1790 : 
; 1791 : 	bool empty() const _NOEXCEPT
; 1792 : 		{	// test if sequence is empty
; 1793 : 		return (this->_Mysize == 0);
; 1794 : 		}
; 1795 : 
; 1796 : 	_SCL_INSECURE_DEPRECATE
; 1797 : 
; 1798 : 	size_type copy(_Elem *_Ptr,
; 1799 : 		size_type _Count, size_type _Off = 0) const
; 1800 : 		{	// copy [_Off, _Off + _Count) to [_Ptr, _Ptr + _Count)
; 1801 :  #if _ITERATOR_DEBUG_LEVEL == 2
; 1802 : 		if (_Count != 0)
; 1803 : 			_DEBUG_POINTER(_Ptr);
; 1804 :  #endif /* _ITERATOR_DEBUG_LEVEL == 2 */
; 1805 : 
; 1806 : 		if (this->_Mysize < _Off)
; 1807 : 			_Xran();	// _Off off end
; 1808 : 		if (this->_Mysize - _Off < _Count)
; 1809 : 			_Count = this->_Mysize - _Off;
; 1810 : 		_Traits::copy(_Ptr, this->_Myptr() + _Off, _Count);
; 1811 : 		return (_Count);
; 1812 : 		}
; 1813 : 
; 1814 : 	size_type _Copy_s(_Elem *_Dest, size_type _Dest_size,
; 1815 : 		size_type _Count, size_type _Off = 0) const
; 1816 : 		{	// copy [_Off, _Off + _Count) to [_Dest, _Dest + _Count)
; 1817 :  #if _ITERATOR_DEBUG_LEVEL == 2
; 1818 : 		if (_Count != 0)
; 1819 : 			_DEBUG_POINTER(_Dest);
; 1820 :  #endif /* _ITERATOR_DEBUG_LEVEL == 2 */
; 1821 : 
; 1822 : 		if (this->_Mysize < _Off)
; 1823 : 			_Xran();	// _Off off end
; 1824 : 		if (this->_Mysize - _Off < _Count)
; 1825 : 			_Count = this->_Mysize - _Off;
; 1826 : 		_Traits::_Copy_s(_Dest, _Dest_size, this->_Myptr() + _Off, _Count);
; 1827 : 		return (_Count);
; 1828 : 		}
; 1829 : 
; 1830 : 	void _Swap_bx(_Myt& _Right)
; 1831 : 		{	// exchange _Bx with _Right._Bx
; 1832 : 		if (this->_BUF_SIZE <= this->_Myres)
; 1833 : 			if (this->_BUF_SIZE <= _Right._Myres)
; 1834 : 				_Swap_adl(this->_Bx._Ptr, _Right._Bx._Ptr);
; 1835 : 			else
; 1836 : 				{	// swap large with small
; 1837 : 				pointer _Ptr = this->_Bx._Ptr;
; 1838 : 				this->_Getal().destroy(&this->_Bx._Ptr);
; 1839 : 				_Traits::copy(this->_Bx._Buf,
; 1840 : 					_Right._Bx._Buf, _Right._Mysize + 1);
; 1841 : 				this->_Getal().construct(&_Right._Bx._Ptr, _Ptr);
; 1842 : 				}
; 1843 : 		else
; 1844 : 			if (_Right._Myres < this->_BUF_SIZE)
; 1845 : 				_STD swap(this->_Bx._Buf, _Right._Bx._Buf);
; 1846 : 			else
; 1847 : 				{	// swap small with large
; 1848 : 				pointer _Ptr = _Right._Bx._Ptr;
; 1849 : 				this->_Getal().destroy(&_Right._Bx._Ptr);
; 1850 : 				_Traits::copy(_Right._Bx._Buf,
; 1851 : 					this->_Bx._Buf, this->_Mysize + 1);
; 1852 : 				this->_Getal().construct(&this->_Bx._Ptr, _Ptr);
; 1853 : 				}
; 1854 : 		}
; 1855 : 
; 1856 : 	void swap(_Myt& _Right)
; 1857 : 		{	// exchange contents with _Right
; 1858 : 		if (this == &_Right)
; 1859 : 			;	// same object, do nothing
; 1860 : 		else if (this->_Getal() == _Right._Getal())
; 1861 : 			{	// same allocator, swap control information
; 1862 : 			this->_Swap_all(_Right);
; 1863 : 			_Swap_bx(_Right);
; 1864 : 			_STD swap(this->_Mysize, _Right._Mysize);
; 1865 : 			_STD swap(this->_Myres, _Right._Myres);
; 1866 : 			}
; 1867 : 
; 1868 : 		else if (_Alty::propagate_on_container_swap::value)
; 1869 : 			{	// swap allocators and control information
; 1870 : 			this->_Swap_alloc(_Right);
; 1871 : 			_Swap_bx(_Right);
; 1872 : 			_STD swap(this->_Bx, _Right._Bx);	// pointer bitwise copyable?
; 1873 : 			_STD swap(this->_Mysize, _Right._Mysize);
; 1874 : 			_STD swap(this->_Myres, _Right._Myres);
; 1875 : 			}
; 1876 : 
; 1877 : 		else
; 1878 : 			{	// different allocator, do multiple assigns
; 1879 : 			_Myt _Tmp = *this;
; 1880 : 
; 1881 : 			*this = _Right;
; 1882 : 			_Right = _Tmp;
; 1883 : 			}
; 1884 : 		}
; 1885 : 
; 1886 : 	size_type find(const _Myt& _Right, size_type _Off = 0) const _NOEXCEPT
; 1887 : 		{	// look for _Right beginning at or after _Off
; 1888 : 		return (find(_Right._Myptr(), _Off, _Right.size()));
; 1889 : 		}
; 1890 : 
; 1891 : 	size_type find(const _Elem *_Ptr,
; 1892 : 		size_type _Off, size_type _Count) const
; 1893 : 		{	// look for [_Ptr, _Ptr + _Count) beginning at or after _Off
; 1894 :  #if _ITERATOR_DEBUG_LEVEL == 2
; 1895 : 		if (_Count != 0)
; 1896 : 			_DEBUG_POINTER(_Ptr);
; 1897 :  #endif /* _ITERATOR_DEBUG_LEVEL == 2 */
; 1898 : 
; 1899 : 		if (_Count == 0 && _Off <= this->_Mysize)
; 1900 : 			return (_Off);	// null string always matches (if inside string)
; 1901 : 
; 1902 : 		size_type _Nm;
; 1903 : 		if (_Off < this->_Mysize && _Count <= (_Nm = this->_Mysize - _Off))
; 1904 : 			{	// room for match, look for it
; 1905 : 			const _Elem *_Uptr, *_Vptr;
; 1906 : 			for (_Nm -= _Count - 1, _Vptr = this->_Myptr() + _Off;
; 1907 : 				(_Uptr = _Traits::find(_Vptr, _Nm, *_Ptr)) != 0;
; 1908 : 				_Nm -= _Uptr - _Vptr + 1, _Vptr = _Uptr + 1)
; 1909 : 				if (_Traits::compare(_Uptr, _Ptr, _Count) == 0)
; 1910 : 					return (_Uptr - this->_Myptr());	// found a match
; 1911 : 			}
; 1912 : 
; 1913 : 		return (npos);	// no match
; 1914 : 		}
; 1915 : 
; 1916 : 	size_type find(const _Elem *_Ptr, size_type _Off = 0) const
; 1917 : 		{	// look for [_Ptr, <null>) beginning at or after _Off
; 1918 : 		_DEBUG_POINTER(_Ptr);
; 1919 : 		return (find(_Ptr, _Off, _Traits::length(_Ptr)));
; 1920 : 		}
; 1921 : 
; 1922 : 	size_type find(_Elem _Ch, size_type _Off = 0) const
; 1923 : 		{	// look for _Ch at or after _Off
; 1924 : 		return (find((const _Elem *)&_Ch, _Off, 1));
; 1925 : 		}
; 1926 : 
; 1927 : 	size_type rfind(const _Myt& _Right, size_type _Off = npos) const _NOEXCEPT
; 1928 : 		{	// look for _Right beginning before _Off
; 1929 : 		return (rfind(_Right._Myptr(), _Off, _Right.size()));
; 1930 : 		}
; 1931 : 
; 1932 : 	size_type rfind(const _Elem *_Ptr,
; 1933 : 		size_type _Off, size_type _Count) const
; 1934 : 		{	// look for [_Ptr, _Ptr + _Count) beginning before _Off
; 1935 :  #if _ITERATOR_DEBUG_LEVEL == 2
; 1936 : 		if (_Count != 0)
; 1937 : 			_DEBUG_POINTER(_Ptr);
; 1938 :  #endif /* _ITERATOR_DEBUG_LEVEL == 2 */
; 1939 : 
; 1940 : 		if (_Count == 0)
; 1941 : 			return (_Off < this->_Mysize ? _Off
; 1942 : 				: this->_Mysize);	// null always matches
; 1943 : 		if (_Count <= this->_Mysize)
; 1944 : 			{	// room for match, look for it
; 1945 : 			const _Elem *_Uptr = this->_Myptr() +
; 1946 : 				(_Off < this->_Mysize - _Count ? _Off
; 1947 : 					: this->_Mysize - _Count);
; 1948 : 			for (; ; --_Uptr)
; 1949 : 				if (_Traits::eq(*_Uptr, *_Ptr)
; 1950 : 					&& _Traits::compare(_Uptr, _Ptr, _Count) == 0)
; 1951 : 					return (_Uptr - this->_Myptr());	// found a match
; 1952 : 				else if (_Uptr == this->_Myptr())
; 1953 : 					break;	// at beginning, no more chance for match
; 1954 : 			}
; 1955 : 
; 1956 : 		return (npos);	// no match
; 1957 : 		}
; 1958 : 
; 1959 : 	size_type rfind(const _Elem *_Ptr, size_type _Off = npos) const
; 1960 : 		{	// look for [_Ptr, <null>) beginning before _Off
; 1961 : 		_DEBUG_POINTER(_Ptr);
; 1962 : 		return (rfind(_Ptr, _Off, _Traits::length(_Ptr)));
; 1963 : 		}
; 1964 : 
; 1965 : 	size_type rfind(_Elem _Ch, size_type _Off = npos) const
; 1966 : 		{	// look for _Ch before _Off
; 1967 : 		return (rfind((const _Elem *)&_Ch, _Off, 1));
; 1968 : 		}
; 1969 : 
; 1970 : 	size_type find_first_of(const _Myt& _Right,
; 1971 : 		size_type _Off = 0) const _NOEXCEPT
; 1972 : 		{	// look for one of _Right at or after _Off
; 1973 : 		return (find_first_of(_Right._Myptr(), _Off, _Right.size()));
; 1974 : 		}
; 1975 : 
; 1976 : 	size_type find_first_of(const _Elem *_Ptr,
; 1977 : 		size_type _Off, size_type _Count) const
; 1978 : 		{	// look for one of [_Ptr, _Ptr + _Count) at or after _Off
; 1979 :  #if _ITERATOR_DEBUG_LEVEL == 2
; 1980 : 		if (_Count != 0)
; 1981 : 			_DEBUG_POINTER(_Ptr);
; 1982 :  #endif /* _ITERATOR_DEBUG_LEVEL == 2 */
; 1983 : 
; 1984 : 		if (0 < _Count && _Off < this->_Mysize)
; 1985 : 			{	// room for match, look for it
; 1986 : 			const _Elem *const _Vptr = this->_Myptr() + this->_Mysize;
; 1987 : 			for (const _Elem *_Uptr = this->_Myptr() + _Off;
; 1988 : 				_Uptr < _Vptr; ++_Uptr)
; 1989 : 				if (_Traits::find(_Ptr, _Count, *_Uptr) != 0)
; 1990 : 					return (_Uptr - this->_Myptr());	// found a match
; 1991 : 			}
; 1992 : 
; 1993 : 		return (npos);	// no match
; 1994 : 		}
; 1995 : 
; 1996 : 	size_type find_first_of(const _Elem *_Ptr,
; 1997 : 		size_type _Off = 0) const
; 1998 : 		{	// look for one of [_Ptr, <null>) at or after _Off
; 1999 : 		_DEBUG_POINTER(_Ptr);
; 2000 : 		return (find_first_of(_Ptr, _Off, _Traits::length(_Ptr)));
; 2001 : 		}
; 2002 : 
; 2003 : 	size_type find_first_of(_Elem _Ch,
; 2004 : 		size_type _Off = 0) const
; 2005 : 		{	// look for _Ch at or after _Off
; 2006 : 		return (find((const _Elem *)&_Ch, _Off, 1));
; 2007 : 		}
; 2008 : 
; 2009 : 	size_type find_last_of(const _Myt& _Right,
; 2010 : 		size_type _Off = npos) const _NOEXCEPT
; 2011 : 		{	// look for one of _Right before _Off
; 2012 : 		return (find_last_of(_Right._Myptr(), _Off, _Right.size()));
; 2013 : 		}
; 2014 : 
; 2015 : 	size_type find_last_of(const _Elem *_Ptr,
; 2016 : 		size_type _Off, size_type _Count) const
; 2017 : 		{	// look for one of [_Ptr, _Ptr + _Count) before _Off
; 2018 :  #if _ITERATOR_DEBUG_LEVEL == 2
; 2019 : 		if (_Count != 0)
; 2020 : 			_DEBUG_POINTER(_Ptr);
; 2021 :  #endif /* _ITERATOR_DEBUG_LEVEL == 2 */
; 2022 : 
; 2023 : 		if (0 < _Count && 0 < this->_Mysize)
; 2024 : 			{	// worth searching, do it
; 2025 : 			const _Elem *_Uptr = this->_Myptr()
; 2026 : 				+ (_Off < this->_Mysize ? _Off : this->_Mysize - 1);
; 2027 : 			for (; ; --_Uptr)
; 2028 : 				if (_Traits::find(_Ptr, _Count, *_Uptr) != 0)
; 2029 : 					return (_Uptr - this->_Myptr());	// found a match
; 2030 : 				else if (_Uptr == this->_Myptr())
; 2031 : 					break;	// at beginning, no more chance for match
; 2032 : 			}
; 2033 : 
; 2034 : 		return (npos);	// no match
; 2035 : 		}
; 2036 : 
; 2037 : 	size_type find_last_of(const _Elem *_Ptr,
; 2038 : 		size_type _Off = npos) const
; 2039 : 		{	// look for one of [_Ptr, <null>) before _Off
; 2040 : 		_DEBUG_POINTER(_Ptr);
; 2041 : 		return (find_last_of(_Ptr, _Off, _Traits::length(_Ptr)));
; 2042 : 		}
; 2043 : 
; 2044 : 	size_type find_last_of(_Elem _Ch,
; 2045 : 		size_type _Off = npos) const
; 2046 : 		{	// look for _Ch before _Off
; 2047 : 		return (rfind((const _Elem *)&_Ch, _Off, 1));
; 2048 : 		}
; 2049 : 
; 2050 : 	size_type find_first_not_of(const _Myt& _Right,
; 2051 : 		size_type _Off = 0) const _NOEXCEPT
; 2052 : 		{	// look for none of _Right at or after _Off
; 2053 : 		return (find_first_not_of(_Right._Myptr(), _Off,
; 2054 : 			_Right.size()));
; 2055 : 		}
; 2056 : 
; 2057 : 	size_type find_first_not_of(const _Elem *_Ptr,
; 2058 : 		size_type _Off, size_type _Count) const
; 2059 : 		{	// look for none of [_Ptr, _Ptr + _Count) at or after _Off
; 2060 :  #if _ITERATOR_DEBUG_LEVEL == 2
; 2061 : 		if (_Count != 0)
; 2062 : 			_DEBUG_POINTER(_Ptr);
; 2063 :  #endif /* _ITERATOR_DEBUG_LEVEL == 2 */
; 2064 : 
; 2065 : 		if (_Off < this->_Mysize)
; 2066 : 			{	// room for match, look for it
; 2067 : 			const _Elem *const _Vptr = this->_Myptr() + this->_Mysize;
; 2068 : 			for (const _Elem *_Uptr = this->_Myptr() + _Off;
; 2069 : 				_Uptr < _Vptr; ++_Uptr)
; 2070 : 				if (_Traits::find(_Ptr, _Count, *_Uptr) == 0)
; 2071 : 					return (_Uptr - this->_Myptr());
; 2072 : 			}
; 2073 : 		return (npos);
; 2074 : 		}
; 2075 : 
; 2076 : 	size_type find_first_not_of(const _Elem *_Ptr,
; 2077 : 		size_type _Off = 0) const
; 2078 : 		{	// look for one of [_Ptr, <null>) at or after _Off
; 2079 : 		_DEBUG_POINTER(_Ptr);
; 2080 : 		return (find_first_not_of(_Ptr, _Off, _Traits::length(_Ptr)));
; 2081 : 		}
; 2082 : 
; 2083 : 	size_type find_first_not_of(_Elem _Ch,
; 2084 : 		size_type _Off = 0) const
; 2085 : 		{	// look for non _Ch at or after _Off
; 2086 : 		return (find_first_not_of((const _Elem *)&_Ch, _Off, 1));
; 2087 : 		}
; 2088 : 
; 2089 : 	size_type find_last_not_of(const _Myt& _Right,
; 2090 : 		size_type _Off = npos) const _NOEXCEPT
; 2091 : 		{	// look for none of _Right before _Off
; 2092 : 		return (find_last_not_of(_Right._Myptr(), _Off, _Right.size()));
; 2093 : 		}
; 2094 : 
; 2095 : 	size_type find_last_not_of(const _Elem *_Ptr,
; 2096 : 		size_type _Off, size_type _Count) const
; 2097 : 		{	// look for none of [_Ptr, _Ptr + _Count) before _Off
; 2098 :  #if _ITERATOR_DEBUG_LEVEL == 2
; 2099 : 		if (_Count != 0)
; 2100 : 			_DEBUG_POINTER(_Ptr);
; 2101 :  #endif /* _ITERATOR_DEBUG_LEVEL == 2 */
; 2102 : 
; 2103 : 		if (0 < this->_Mysize)
; 2104 : 			{	// worth searching, do it
; 2105 : 			const _Elem *_Uptr = this->_Myptr()
; 2106 : 				+ (_Off < this->_Mysize ? _Off : this->_Mysize - 1);
; 2107 : 			for (; ; --_Uptr)
; 2108 : 				if (_Traits::find(_Ptr, _Count, *_Uptr) == 0)
; 2109 : 					return (_Uptr - this->_Myptr());
; 2110 : 				else if (_Uptr == this->_Myptr())
; 2111 : 					break;
; 2112 : 			}
; 2113 : 		return (npos);
; 2114 : 		}
; 2115 : 
; 2116 : 	size_type find_last_not_of(const _Elem *_Ptr,
; 2117 : 		size_type _Off = npos) const
; 2118 : 		{	// look for none of [_Ptr, <null>) before _Off
; 2119 : 		_DEBUG_POINTER(_Ptr);
; 2120 : 		return (find_last_not_of(_Ptr, _Off, _Traits::length(_Ptr)));
; 2121 : 		}
; 2122 : 
; 2123 : 	size_type find_last_not_of(_Elem _Ch,
; 2124 : 		size_type _Off = npos) const
; 2125 : 		{	// look for non _Ch before _Off
; 2126 : 		return (find_last_not_of((const _Elem *)&_Ch, _Off, 1));
; 2127 : 		}
; 2128 : 
; 2129 : 	_Myt substr(size_type _Off = 0, size_type _Count = npos) const
; 2130 : 		{	// return [_Off, _Off + _Count) as new string
; 2131 : 		return (_Myt(*this, _Off, _Count, get_allocator()));
; 2132 : 		}
; 2133 : 
; 2134 : 	int compare(const _Myt& _Right) const _NOEXCEPT
; 2135 : 		{	// compare [0, _Mysize) with _Right
; 2136 : 		return (compare(0, this->_Mysize, _Right._Myptr(), _Right.size()));
; 2137 : 		}
; 2138 : 
; 2139 : 	int compare(size_type _Off, size_type _N0,
; 2140 : 		const _Myt& _Right) const
; 2141 : 		{	// compare [_Off, _Off + _N0) with _Right
; 2142 : 		return (compare(_Off, _N0, _Right, 0, npos));
; 2143 : 		}
; 2144 : 
; 2145 : 	int compare(size_type _Off,
; 2146 : 		size_type _N0, const _Myt& _Right,
; 2147 : 		size_type _Roff, size_type _Count) const
; 2148 : 		{	// compare [_Off, _Off + _N0) with _Right [_Roff, _Roff + _Count)
; 2149 : 		if (_Right.size() < _Roff)
; 2150 : 			_Xran();	// _Off off end
; 2151 : 		if (_Right._Mysize - _Roff < _Count)
; 2152 : 			_Count = _Right._Mysize - _Roff;	// trim _Count to size
; 2153 : 		return (compare(_Off, _N0, _Right._Myptr() + _Roff, _Count));
; 2154 : 		}
; 2155 : 
; 2156 : 	int compare(const _Elem *_Ptr) const
; 2157 : 		{	// compare [0, _Mysize) with [_Ptr, <null>)
; 2158 : 		_DEBUG_POINTER(_Ptr);
; 2159 : 		return (compare(0, this->_Mysize, _Ptr, _Traits::length(_Ptr)));
; 2160 : 		}
; 2161 : 
; 2162 : 	int compare(size_type _Off, size_type _N0, const _Elem *_Ptr) const
; 2163 : 		{	// compare [_Off, _Off + _N0) with [_Ptr, <null>)
; 2164 : 		_DEBUG_POINTER(_Ptr);
; 2165 : 		return (compare(_Off, _N0, _Ptr, _Traits::length(_Ptr)));
; 2166 : 		}
; 2167 : 
; 2168 : 	int compare(size_type _Off,
; 2169 : 		size_type _N0, const _Elem *_Ptr, size_type _Count) const
; 2170 : 		{	// compare [_Off, _Off + _N0) with [_Ptr, _Ptr + _Count)
; 2171 :  #if _ITERATOR_DEBUG_LEVEL == 2
; 2172 : 		if (_Count != 0)
; 2173 : 			_DEBUG_POINTER(_Ptr);
; 2174 :  #endif /* _ITERATOR_DEBUG_LEVEL == 2 */
; 2175 : 
; 2176 : 		if (this->_Mysize < _Off)
; 2177 : 			_Xran();	// _Off off end
; 2178 : 		if (this->_Mysize - _Off < _N0)
; 2179 : 			_N0 = this->_Mysize - _Off;	// trim _N0 to size
; 2180 : 
; 2181 : 		size_type _Ans = _Traits::compare(this->_Myptr() + _Off, _Ptr,
; 2182 : 			_N0 < _Count ? _N0 : _Count);
; 2183 : 		return (_Ans != 0 ? (int)_Ans : _N0 < _Count ? -1
; 2184 : 			: _N0 == _Count ? 0 : +1);
; 2185 : 		}
; 2186 : 
; 2187 : 	allocator_type get_allocator() const _NOEXCEPT
; 2188 : 		{	// return allocator object for values
; 2189 : 		return (this->_Getal());
; 2190 : 		}
; 2191 : 
; 2192 : 	void _Chassign(size_type _Off, size_type _Count, _Elem _Ch)
; 2193 : 		{	// assign _Count copies of _Ch beginning at _Off
; 2194 : 		if (_Count == 1)
; 2195 : 			_Traits::assign(*(this->_Myptr() + _Off), _Ch);
; 2196 : 		else
; 2197 : 			_Traits::assign(this->_Myptr() + _Off, _Count, _Ch);
; 2198 : 		}
; 2199 : 
; 2200 : 	void _Copy(size_type _Newsize, size_type _Oldlen)
; 2201 : 		{	// copy _Oldlen elements to newly allocated buffer
; 2202 : 		size_type _Newres = _Newsize | this->_ALLOC_MASK;
; 2203 : 		if (max_size() < _Newres)
; 2204 : 			_Newres = _Newsize;	// undo roundup if too big
; 2205 : 		else if (this->_Myres / 2 <= _Newres / 3)
; 2206 : 			;
; 2207 : 		else if (this->_Myres <= max_size() - this->_Myres / 2)
; 2208 : 			_Newres = this->_Myres
; 2209 : 				+ this->_Myres / 2;	// grow exponentially if possible
; 2210 : 		else
; 2211 : 			_Newres = max_size();	// settle for max_size()
; 2212 : 
; 2213 : 		_Elem *_Ptr;
; 2214 : 		_TRY_BEGIN
; 2215 : 			_Ptr = this->_Getal().allocate(_Newres + 1);
; 2216 : 		_CATCH_ALL
; 2217 : 			_Newres = _Newsize;	// allocation failed, undo roundup and retry
; 2218 : 			_TRY_BEGIN
; 2219 : 				_Ptr = this->_Getal().allocate(_Newres + 1);
; 2220 : 			_CATCH_ALL
; 2221 : 			_Tidy(true);	// failed again, discard storage and reraise
; 2222 : 			_RERAISE;
; 2223 : 			_CATCH_END
; 2224 : 		_CATCH_END
; 2225 : 
; 2226 : 		if (0 < _Oldlen)
; 2227 : 			_Traits::copy(_Ptr, this->_Myptr(),
; 2228 : 				_Oldlen);	// copy existing elements
; 2229 : 		_Tidy(true);
; 2230 : 		this->_Getal().construct(&this->_Bx._Ptr, _Ptr);
; 2231 : 		this->_Myres = _Newres;
; 2232 : 		_Eos(_Oldlen);
; 2233 : 		}
; 2234 : 
; 2235 : 	void _Eos(size_type _Newsize)
; 2236 : 		{	// set new length and null terminator
; 2237 : 		_Traits::assign(this->_Myptr()[this->_Mysize = _Newsize], _Elem());

	mov	QWORD PTR $T2[rsp+16], r14
; File c:\program files (x86)\microsoft visual studio 12.0\vc\include\iosfwd

; 564  : 		_Left = _Right;

	mov	BYTE PTR $T2[rsp], 0
; File c:\program files (x86)\microsoft visual studio 12.0\vc\include\xstring

; 2275 : 		else if (this->_BUF_SIZE <= this->_Myres)

	cmp	QWORD PTR $T1[rsp+24], 16
	jb	SHORT $LN144@ProcessIOC
; File c:\program files (x86)\microsoft visual studio 12.0\vc\include\xmemory0

; 573  : 		::operator delete(_Ptr);

	mov	rcx, QWORD PTR $T1[rsp]
	call	??3@YAXPEAX@Z				; operator delete
$LN144@ProcessIOC:
; File c:\program files (x86)\microsoft visual studio 12.0\vc\include\xstring

; 2284 : 		this->_Myres = this->_BUF_SIZE - 1;

	mov	QWORD PTR $T1[rsp+24], 15

; 1170 : 		}
; 1171 : 
; 1172 : 	_Myt& assign(size_type _Count, _Elem _Ch)
; 1173 : 		{	// assign _Count * _Ch
; 1174 : 		if (_Count == npos)
; 1175 : 			_Xlen();	// result too long
; 1176 : 
; 1177 : 		if (_Grow(_Count))
; 1178 : 			{	// make room and assign new stuff
; 1179 : 			_Chassign(0, _Count, _Ch);
; 1180 : 			_Eos(_Count);
; 1181 : 			}
; 1182 : 		return (*this);
; 1183 : 		}
; 1184 : 
; 1185 : 	template<class _Iter>
; 1186 : 		typename enable_if<_Is_iterator<_Iter>::value,
; 1187 : 			_Myt&>::type
; 1188 : 		assign(_Iter _First, _Iter _Last)
; 1189 : 		{	// assign [_First, _Last), input iterators
; 1190 : 		return (replace(begin(), end(), _First, _Last));
; 1191 : 		}
; 1192 : 
; 1193 : 	_Myt& assign(const_pointer _First, const_pointer _Last)
; 1194 : 		{	// assign [_First, _Last), const pointers
; 1195 : 		return (replace(begin(), end(), _First, _Last));
; 1196 : 		}
; 1197 : 
; 1198 : 	_Myt& assign(const_iterator _First, const_iterator _Last)
; 1199 : 		{	// assign [_First, _Last), const_iterators
; 1200 : 		return (replace(begin(), end(), _First, _Last));
; 1201 : 		}
; 1202 : 
; 1203 : 	_Myt& insert(size_type _Off, const _Myt& _Right)
; 1204 : 		{	// insert _Right at _Off
; 1205 : 		return (insert(_Off, _Right, 0, npos));
; 1206 : 		}
; 1207 : 
; 1208 : 	_Myt& insert(size_type _Off,
; 1209 : 		const _Myt& _Right, size_type _Roff, size_type _Count)
; 1210 : 		{	// insert _Right [_Roff, _Roff + _Count) at _Off
; 1211 : 		if (this->_Mysize < _Off || _Right.size() < _Roff)
; 1212 : 			_Xran();	// _Off or _Roff off end
; 1213 : 		size_type _Num = _Right.size() - _Roff;
; 1214 : 		if (_Num < _Count)
; 1215 : 			_Count = _Num;	// trim _Count to size
; 1216 : 		if (npos - this->_Mysize <= _Count)
; 1217 : 			_Xlen();	// result too long
; 1218 : 
; 1219 : 		if (0 < _Count && _Grow(_Num = this->_Mysize + _Count))
; 1220 : 			{	// make room and insert new stuff
; 1221 : 			_Traits::move(this->_Myptr() + _Off + _Count,
; 1222 : 				this->_Myptr() + _Off,
; 1223 : 				this->_Mysize - _Off);	// empty out hole
; 1224 : 			if (this == &_Right)
; 1225 : 				_Traits::move(this->_Myptr() + _Off,
; 1226 : 					this->_Myptr() + (_Off < _Roff ? _Roff + _Count : _Roff),
; 1227 : 						_Count);	// substring
; 1228 : 			else
; 1229 : 				_Traits::copy(this->_Myptr() + _Off,
; 1230 : 					_Right._Myptr() + _Roff, _Count);	// fill hole
; 1231 : 			_Eos(_Num);
; 1232 : 			}
; 1233 : 		return (*this);
; 1234 : 		}
; 1235 : 
; 1236 : 	_Myt& insert(size_type _Off,
; 1237 : 		const _Elem *_Ptr, size_type _Count)
; 1238 : 		{	// insert [_Ptr, _Ptr + _Count) at _Off
; 1239 :  #if _ITERATOR_DEBUG_LEVEL == 2
; 1240 : 		if (_Count != 0)
; 1241 : 			_DEBUG_POINTER(_Ptr);
; 1242 :  #endif /* _ITERATOR_DEBUG_LEVEL == 2 */
; 1243 : 
; 1244 : 		if (_Inside(_Ptr))
; 1245 : 			return (insert(_Off, *this,
; 1246 : 				_Ptr - this->_Myptr(), _Count));	// substring
; 1247 : 		if (this->_Mysize < _Off)
; 1248 : 			_Xran();	// _Off off end
; 1249 : 		if (npos - this->_Mysize <= _Count)
; 1250 : 			_Xlen();	// result too long
; 1251 : 		size_type _Num;
; 1252 : 		if (0 < _Count && _Grow(_Num = this->_Mysize + _Count))
; 1253 : 			{	// make room and insert new stuff
; 1254 : 			_Traits::move(this->_Myptr() + _Off + _Count,
; 1255 : 				this->_Myptr() + _Off,
; 1256 : 				this->_Mysize - _Off);	// empty out hole
; 1257 : 			_Traits::copy(this->_Myptr() + _Off, _Ptr, _Count);	// fill hole
; 1258 : 			_Eos(_Num);
; 1259 : 			}
; 1260 : 		return (*this);
; 1261 : 		}
; 1262 : 
; 1263 : 	_Myt& insert(size_type _Off, const _Elem *_Ptr)
; 1264 : 		{	// insert [_Ptr, <null>) at _Off
; 1265 : 		_DEBUG_POINTER(_Ptr);
; 1266 : 		return (insert(_Off, _Ptr, _Traits::length(_Ptr)));
; 1267 : 		}
; 1268 : 
; 1269 : 	_Myt& insert(size_type _Off,
; 1270 : 		size_type _Count, _Elem _Ch)
; 1271 : 		{	// insert _Count * _Ch at _Off
; 1272 : 		if (this->_Mysize < _Off)
; 1273 : 			_Xran();	// _Off off end
; 1274 : 		if (npos - this->_Mysize <= _Count)
; 1275 : 			_Xlen();	// result too long
; 1276 : 		size_type _Num;
; 1277 : 		if (0 < _Count && _Grow(_Num = this->_Mysize + _Count))
; 1278 : 			{	// make room and insert new stuff
; 1279 : 			_Traits::move(this->_Myptr() + _Off + _Count,
; 1280 : 				this->_Myptr() + _Off,
; 1281 : 				this->_Mysize - _Off);	// empty out hole
; 1282 : 			_Chassign(_Off, _Count, _Ch);	// fill hole
; 1283 : 			_Eos(_Num);
; 1284 : 			}
; 1285 : 		return (*this);
; 1286 : 		}
; 1287 : 
; 1288 : 	iterator insert(const_iterator _Where)
; 1289 : 		{	// insert <null> at _Where
; 1290 : 		return (insert(_Where, _Elem()));
; 1291 : 		}
; 1292 : 
; 1293 : 	iterator insert(const_iterator _Where, _Elem _Ch)
; 1294 : 		{	// insert _Ch at _Where
; 1295 : 		size_type _Off = _Pdif(_Where, begin());
; 1296 : 		insert(_Off, 1, _Ch);
; 1297 : 		return (begin() + _Off);
; 1298 : 		}
; 1299 : 
; 1300 : 	iterator insert(const_iterator _Where, size_type _Count, _Elem _Ch)
; 1301 : 		{	// insert _Count * _Elem at _Where
; 1302 : 		size_type _Off = _Pdif(_Where, begin());
; 1303 : 		insert(_Off, _Count, _Ch);
; 1304 : 		return (begin() + _Off);
; 1305 : 		}
; 1306 : 
; 1307 : 	template<class _Iter>
; 1308 : 		typename enable_if<_Is_iterator<_Iter>::value,
; 1309 : 			iterator>::type
; 1310 : 		insert(const_iterator _Where, _Iter _First, _Iter _Last)
; 1311 : 		{	// insert [_First, _Last) at _Where, input iterators
; 1312 : 		size_type _Off = _Pdif(_Where, begin());
; 1313 : 		replace(_Where, _Where, _First, _Last);
; 1314 : 		return (begin() + _Off);
; 1315 : 		}
; 1316 : 
; 1317 : 	iterator insert(const_iterator _Where,
; 1318 : 		const_pointer _First, const_pointer _Last)
; 1319 : 		{	// insert [_First, _Last) at _Where, const pointers
; 1320 : 		size_type _Off = _Pdif(_Where, begin());
; 1321 : 		replace(_Where, _Where, _First, _Last);
; 1322 : 		return (begin() + _Off);
; 1323 : 		}
; 1324 : 
; 1325 : 	iterator insert(const_iterator _Where,
; 1326 : 		const_iterator _First, const_iterator _Last)
; 1327 : 		{	// insert [_First, _Last) at _Where, const_iterators
; 1328 : 		size_type _Off = _Pdif(_Where, begin());
; 1329 : 		replace(_Where, _Where, _First, _Last);
; 1330 : 		return (begin() + _Off);
; 1331 : 		}
; 1332 : 
; 1333 : 	_Myt& erase(size_type _Off = 0)
; 1334 : 		{	// erase elements [_Off, ...)
; 1335 : 		if (this->_Mysize < _Off)
; 1336 : 			_Xran();	// _Off off end
; 1337 : 		_Eos(_Off);
; 1338 : 		return (*this);
; 1339 : 		}
; 1340 : 
; 1341 : 	_Myt& erase(size_type _Off, size_type _Count)
; 1342 : 		{	// erase elements [_Off, _Off + _Count)
; 1343 : 		if (this->_Mysize < _Off)
; 1344 : 			_Xran();	// _Off off end
; 1345 : 		if (this->_Mysize - _Off <= _Count)
; 1346 : 			_Eos(_Off);	// erase elements [_Off, ...)
; 1347 : 		else if (0 < _Count)
; 1348 : 			{	// move elements down
; 1349 : 			value_type *_Ptr = this->_Myptr() + _Off;
; 1350 : 			size_type _Newsize = this->_Mysize - _Count;
; 1351 : 			_Traits::move(_Ptr, _Ptr + _Count, _Newsize - _Off);
; 1352 : 			_Eos(_Newsize);
; 1353 : 			}
; 1354 : 		return (*this);
; 1355 : 		}
; 1356 : 
; 1357 : 	iterator erase(const_iterator _Where)
; 1358 : 		{	// erase element at _Where
; 1359 : 		size_type _Count = _Pdif(_Where, begin());
; 1360 : 		erase(_Count, 1);
; 1361 : 		return (_STRING_ITERATOR(this->_Myptr() + _Count));
; 1362 : 		}
; 1363 : 
; 1364 : 	iterator erase(const_iterator _First, const_iterator _Last)
; 1365 : 		{	// erase substring [_First, _Last)
; 1366 : 		_DEBUG_RANGE(_First, _Last);
; 1367 : 		size_type _Count = _Pdif(_First, begin());
; 1368 : 		erase(_Count, _Pdif(_Last, _First));
; 1369 : 		return (_STRING_ITERATOR(this->_Myptr() + _Count));
; 1370 : 		}
; 1371 : 
; 1372 : 	void clear() _NOEXCEPT
; 1373 : 		{	// erase all
; 1374 : 		_Eos(0);
; 1375 : 		}
; 1376 : 
; 1377 : 	_Myt& replace(size_type _Off, size_type _N0, const _Myt& _Right)
; 1378 : 		{	// replace [_Off, _Off + _N0) with _Right
; 1379 : 		return (replace(_Off, _N0, _Right, 0, npos));
; 1380 : 		}
; 1381 : 
; 1382 : 	_Myt& replace(size_type _Off,
; 1383 : 		size_type _N0, const _Myt& _Right, size_type _Roff, size_type _Count)
; 1384 : 		{	// replace [_Off, _Off + _N0) with _Right [_Roff, _Roff + _Count)
; 1385 : 		if (this->_Mysize < _Off || _Right.size() < _Roff)
; 1386 : 			_Xran();	// _Off or _Roff off end
; 1387 : 		if (this->_Mysize - _Off < _N0)
; 1388 : 			_N0 = this->_Mysize - _Off;	// trim _N0 to size
; 1389 : 		size_type _Num = _Right.size() - _Roff;
; 1390 : 		if (_Num < _Count)
; 1391 : 			_Count = _Num;	// trim _Count to size
; 1392 : 		if (npos - _Count <= this->_Mysize - _N0)
; 1393 : 			_Xlen();	// result too long
; 1394 : 
; 1395 : 		size_type _Nm = this->_Mysize - _N0 - _Off;	// length of kept tail
; 1396 : 		size_type _Newsize = this->_Mysize + _Count - _N0;
; 1397 : 		if (this->_Mysize < _Newsize)
; 1398 : 			_Grow(_Newsize);
; 1399 : 
; 1400 : 		if (this != &_Right)
; 1401 : 			{	// no overlap, just move down and copy in new stuff
; 1402 : 			_Traits::move(this->_Myptr() + _Off + _Count,
; 1403 : 				this->_Myptr() + _Off + _N0, _Nm);	// empty hole
; 1404 : 			_Traits::copy(this->_Myptr() + _Off,
; 1405 : 				_Right._Myptr() + _Roff, _Count);	// fill hole
; 1406 : 			}
; 1407 : 		else if (_Count <= _N0)
; 1408 : 			{	// hole doesn't get larger, just copy in substring
; 1409 : 			_Traits::move(this->_Myptr() + _Off,
; 1410 : 				this->_Myptr() + _Roff, _Count);	// fill hole
; 1411 : 			_Traits::move(this->_Myptr() + _Off + _Count,
; 1412 : 				this->_Myptr() + _Off + _N0, _Nm);	// move tail down
; 1413 : 			}
; 1414 : 		else if (_Roff <= _Off)
; 1415 : 			{	// hole gets larger, substring begins before hole
; 1416 : 			_Traits::move(this->_Myptr() + _Off + _Count,
; 1417 : 				this->_Myptr() + _Off + _N0, _Nm);	// move tail down
; 1418 : 			_Traits::move(this->_Myptr() + _Off,
; 1419 : 				this->_Myptr() + _Roff, _Count);	// fill hole
; 1420 : 			}
; 1421 : 		else if (_Off + _N0 <= _Roff)
; 1422 : 			{	// hole gets larger, substring begins after hole
; 1423 : 			_Traits::move(this->_Myptr() + _Off + _Count,
; 1424 : 				this->_Myptr() + _Off + _N0, _Nm);	// move tail down
; 1425 : 			_Traits::move(this->_Myptr() + _Off,
; 1426 : 				this->_Myptr() + (_Roff + _Count - _N0),
; 1427 : 				_Count);	// fill hole
; 1428 : 			}
; 1429 : 		else
; 1430 : 			{	// hole gets larger, substring begins in hole
; 1431 : 			_Traits::move(this->_Myptr() + _Off,
; 1432 : 				this->_Myptr() + _Roff, _N0);	// fill old hole
; 1433 : 			_Traits::move(this->_Myptr() + _Off + _Count,
; 1434 : 				this->_Myptr() + _Off + _N0, _Nm);	// move tail down
; 1435 : 			_Traits::move(this->_Myptr() + _Off + _N0,
; 1436 : 				this->_Myptr() + _Roff + _Count,
; 1437 : 				_Count - _N0);	// fill rest of new hole
; 1438 : 			}
; 1439 : 
; 1440 : 		_Eos(_Newsize);
; 1441 : 		return (*this);
; 1442 : 		}
; 1443 : 
; 1444 : 	_Myt& replace(size_type _Off,
; 1445 : 		size_type _N0, const _Elem *_Ptr, size_type _Count)
; 1446 : 		{	// replace [_Off, _Off + _N0) with [_Ptr, _Ptr + _Count)
; 1447 :  #if _ITERATOR_DEBUG_LEVEL == 2
; 1448 : 		if (_Count != 0)
; 1449 : 			_DEBUG_POINTER(_Ptr);
; 1450 :  #endif /* _ITERATOR_DEBUG_LEVEL == 2 */
; 1451 : 
; 1452 : 		if (_Inside(_Ptr))
; 1453 : 			return (replace(_Off, _N0, *this,
; 1454 : 				_Ptr - this->_Myptr(),
; 1455 : 				_Count));	// substring, replace carefully
; 1456 : 		if (this->_Mysize < _Off)
; 1457 : 			_Xran();	// _Off off end
; 1458 : 		if (this->_Mysize - _Off < _N0)
; 1459 : 			_N0 = this->_Mysize - _Off;	// trim _N0 to size
; 1460 : 		if (npos - _Count <= this->_Mysize - _N0)
; 1461 : 			_Xlen();	// result too long
; 1462 : 		size_type _Nm = this->_Mysize - _N0 - _Off;
; 1463 : 
; 1464 : 		if (_Count < _N0)
; 1465 : 			_Traits::move(this->_Myptr() + _Off + _Count,
; 1466 : 				this->_Myptr() + _Off + _N0,
; 1467 : 				_Nm);	// smaller hole, move tail up
; 1468 : 		size_type _Num;
; 1469 : 		if ((0 < _Count || 0 < _N0)
; 1470 : 			&& _Grow(_Num = this->_Mysize + _Count - _N0))
; 1471 : 			{	// make room and rearrange
; 1472 : 			if (_N0 < _Count)
; 1473 : 				_Traits::move(this->_Myptr() + _Off + _Count,
; 1474 : 					this->_Myptr() + _Off + _N0, _Nm);	// move tail down
; 1475 : 			_Traits::copy(this->_Myptr() + _Off, _Ptr, _Count);	// fill hole
; 1476 : 			_Eos(_Num);
; 1477 : 			}
; 1478 : 		return (*this);
; 1479 : 		}
; 1480 : 
; 1481 : 	_Myt& replace(size_type _Off, size_type _N0, const _Elem *_Ptr)
; 1482 : 		{	// replace [_Off, _Off + _N0) with [_Ptr, <null>)
; 1483 : 		_DEBUG_POINTER(_Ptr);
; 1484 : 		return (replace(_Off, _N0, _Ptr, _Traits::length(_Ptr)));
; 1485 : 		}
; 1486 : 
; 1487 : 	_Myt& replace(size_type _Off,
; 1488 : 		size_type _N0, size_type _Count, _Elem _Ch)
; 1489 : 		{	// replace [_Off, _Off + _N0) with _Count * _Ch
; 1490 : 		if (this->_Mysize < _Off)
; 1491 : 			_Xran();	// _Off off end
; 1492 : 		if (this->_Mysize - _Off < _N0)
; 1493 : 			_N0 = this->_Mysize - _Off;	// trim _N0 to size
; 1494 : 		if (npos - _Count <= this->_Mysize - _N0)
; 1495 : 			_Xlen();	// result too long
; 1496 : 		size_type _Nm = this->_Mysize - _N0 - _Off;
; 1497 : 
; 1498 : 		if (_Count < _N0)
; 1499 : 			_Traits::move(this->_Myptr() + _Off + _Count,
; 1500 : 				this->_Myptr() + _Off + _N0,
; 1501 : 				_Nm);	// smaller hole, move tail up
; 1502 : 		size_type _Num;
; 1503 : 		if ((0 < _Count || 0 < _N0)
; 1504 : 			&& _Grow(_Num = this->_Mysize + _Count - _N0))
; 1505 : 			{	// make room and rearrange
; 1506 : 			if (_N0 < _Count)
; 1507 : 				_Traits::move(this->_Myptr() + _Off + _Count,
; 1508 : 					this->_Myptr() + _Off + _N0, _Nm);	// move tail down
; 1509 : 			_Chassign(_Off, _Count, _Ch);	// fill hole
; 1510 : 			_Eos(_Num);
; 1511 : 			}
; 1512 : 		return (*this);
; 1513 : 		}
; 1514 : 
; 1515 : 	_Myt& replace(const_iterator _First, const_iterator _Last,
; 1516 : 		const _Myt& _Right)
; 1517 : 		{	// replace [_First, _Last) with _Right
; 1518 : 		return (replace(
; 1519 : 			_Pdif(_First, begin()), _Pdif(_Last, _First), _Right));
; 1520 : 		}
; 1521 : 
; 1522 : 	_Myt& replace(const_iterator _First, const_iterator _Last,
; 1523 : 		const _Elem *_Ptr, size_type _Count)
; 1524 : 		{	// replace [_First, _Last) with [_Ptr, _Ptr + _Count)
; 1525 : 		return (replace(
; 1526 : 			_Pdif(_First, begin()), _Pdif(_Last, _First), _Ptr, _Count));
; 1527 : 		}
; 1528 : 
; 1529 : 	_Myt& replace(const_iterator _First, const_iterator _Last,
; 1530 : 		const _Elem *_Ptr)
; 1531 : 		{	// replace [_First, _Last) with [_Ptr, <null>)
; 1532 : 		return (replace(
; 1533 : 			_Pdif(_First, begin()), _Pdif(_Last, _First), _Ptr));
; 1534 : 		}
; 1535 : 
; 1536 : 	_Myt& replace(const_iterator _First, const_iterator _Last,
; 1537 : 		size_type _Count, _Elem _Ch)
; 1538 : 		{	// replace [_First, _Last) with _Count * _Ch
; 1539 : 		return (replace(
; 1540 : 			_Pdif(_First, begin()), _Pdif(_Last, _First), _Count, _Ch));
; 1541 : 		}
; 1542 : 
; 1543 : 	template<class _Iter>
; 1544 : 		typename enable_if<_Is_iterator<_Iter>::value,
; 1545 : 			_Myt&>::type
; 1546 : 		replace(const_iterator _First, const_iterator _Last,
; 1547 : 			_Iter _First2, _Iter _Last2)
; 1548 : 		{	// replace [_First, _Last) with [_First2, _Last2), input iterators
; 1549 : 		_Myt _Right(_First2, _Last2);
; 1550 : 		replace(_First, _Last, _Right);
; 1551 : 		return (*this);
; 1552 : 		}
; 1553 : 
; 1554 : 	_Myt& replace(const_iterator _First, const_iterator _Last,
; 1555 : 		const_pointer _First2, const_pointer _Last2)
; 1556 : 		{	// replace [_First, _Last) with [_First2, _Last2), const pointers
; 1557 : 		if (_First2 == _Last2)
; 1558 : 			erase(_Pdif(_First, begin()), _Pdif(_Last, _First));
; 1559 : 		else
; 1560 : 			replace(_Pdif(_First, begin()), _Pdif(_Last, _First),
; 1561 : 				&*_First2, _Last2 - _First2);
; 1562 : 		return (*this);
; 1563 : 		}
; 1564 : 
; 1565 : 	_Myt& replace(const_iterator _First, const_iterator _Last,
; 1566 : 		pointer _First2, pointer _Last2)
; 1567 : 		{	// replace [_First, _Last) with [_First2, _Last2), const pointers
; 1568 : 		if (_First2 == _Last2)
; 1569 : 			erase(_Pdif(_First, begin()), _Pdif(_Last, _First));
; 1570 : 		else
; 1571 : 			replace(_Pdif(_First, begin()), _Pdif(_Last, _First),
; 1572 : 				&*_First2, _Last2 - _First2);
; 1573 : 		return (*this);
; 1574 : 		}
; 1575 : 
; 1576 : 	_Myt& replace(const_iterator _First, const_iterator _Last,
; 1577 : 		const_iterator _First2, const_iterator _Last2)
; 1578 : 		{	// replace [_First, _Last) with [_First2, _Last2), const_iterators
; 1579 : 		if (_First2 == _Last2)
; 1580 : 			erase(_Pdif(_First, begin()), _Pdif(_Last, _First));
; 1581 : 		else
; 1582 : 			replace(_Pdif(_First, begin()), _Pdif(_Last, _First),
; 1583 : 				&*_First2, _Last2 - _First2);
; 1584 : 		return (*this);
; 1585 : 		}
; 1586 : 
; 1587 : 	_Myt& replace(const_iterator _First, const_iterator _Last,
; 1588 : 		iterator _First2, iterator _Last2)
; 1589 : 		{	// replace [_First, _Last) with [_First2, _Last2), const_iterators
; 1590 : 		if (_First2 == _Last2)
; 1591 : 			erase(_Pdif(_First, begin()), _Pdif(_Last, _First));
; 1592 : 		else
; 1593 : 			replace(_Pdif(_First, begin()), _Pdif(_Last, _First),
; 1594 : 				&*_First2, _Last2 - _First2);
; 1595 : 		return (*this);
; 1596 : 		}
; 1597 : 
; 1598 : 	iterator begin() _NOEXCEPT
; 1599 : 		{	// return iterator for beginning of mutable sequence
; 1600 : 		return (_STRING_ITERATOR(this->_Myptr()));
; 1601 : 		}
; 1602 : 
; 1603 : 	const_iterator begin() const _NOEXCEPT
; 1604 : 		{	// return iterator for beginning of nonmutable sequence
; 1605 : 		return (_STRING_CONST_ITERATOR(this->_Myptr()));
; 1606 : 		}
; 1607 : 
; 1608 : 	iterator end() _NOEXCEPT
; 1609 : 		{	// return iterator for end of mutable sequence
; 1610 : 		return (_STRING_ITERATOR(this->_Myptr() + this->_Mysize));
; 1611 : 		}
; 1612 : 
; 1613 : 	const_iterator end() const _NOEXCEPT
; 1614 : 		{	// return iterator for end of nonmutable sequence
; 1615 : 		return (_STRING_CONST_ITERATOR(this->_Myptr() + this->_Mysize));
; 1616 : 		}
; 1617 : 
; 1618 : 	reverse_iterator rbegin() _NOEXCEPT
; 1619 : 		{	// return iterator for beginning of reversed mutable sequence
; 1620 : 		return (reverse_iterator(end()));
; 1621 : 		}
; 1622 : 
; 1623 : 	const_reverse_iterator rbegin() const _NOEXCEPT
; 1624 : 		{	// return iterator for beginning of reversed nonmutable sequence
; 1625 : 		return (const_reverse_iterator(end()));
; 1626 : 		}
; 1627 : 
; 1628 : 	reverse_iterator rend() _NOEXCEPT
; 1629 : 		{	// return iterator for end of reversed mutable sequence
; 1630 : 		return (reverse_iterator(begin()));
; 1631 : 		}
; 1632 : 
; 1633 : 	const_reverse_iterator rend() const _NOEXCEPT
; 1634 : 		{	// return iterator for end of reversed nonmutable sequence
; 1635 : 		return (const_reverse_iterator(begin()));
; 1636 : 		}
; 1637 : 
; 1638 : 	const_iterator cbegin() const _NOEXCEPT
; 1639 : 		{	// return iterator for beginning of nonmutable sequence
; 1640 : 		return (((const _Myt *)this)->begin());
; 1641 : 		}
; 1642 : 
; 1643 : 	const_iterator cend() const _NOEXCEPT
; 1644 : 		{	// return iterator for end of nonmutable sequence
; 1645 : 		return (((const _Myt *)this)->end());
; 1646 : 		}
; 1647 : 
; 1648 : 	const_reverse_iterator crbegin() const _NOEXCEPT
; 1649 : 		{	// return iterator for beginning of reversed nonmutable sequence
; 1650 : 		return (((const _Myt *)this)->rbegin());
; 1651 : 		}
; 1652 : 
; 1653 : 	const_reverse_iterator crend() const _NOEXCEPT
; 1654 : 		{	// return iterator for end of reversed nonmutable sequence
; 1655 : 		return (((const _Myt *)this)->rend());
; 1656 : 		}
; 1657 : 
; 1658 : 	void shrink_to_fit()
; 1659 : 		{	// reduce capacity
; 1660 : 		if ((size() | this->_ALLOC_MASK) < capacity())
; 1661 : 			{	// worth shrinking, do it
; 1662 : 			_Myt _Tmp(*this);
; 1663 : 			swap(_Tmp);
; 1664 : 			}
; 1665 : 		}
; 1666 : 
; 1667 : 	reference at(size_type _Off)
; 1668 : 		{	// subscript mutable sequence with checking
; 1669 : 		if (this->_Mysize <= _Off)
; 1670 : 			_Xran();	// _Off off end
; 1671 : 		return (this->_Myptr()[_Off]);
; 1672 : 		}
; 1673 : 
; 1674 : 	const_reference at(size_type _Off) const
; 1675 : 		{	// subscript nonmutable sequence with checking
; 1676 : 		if (this->_Mysize <= _Off)
; 1677 : 			_Xran();	// _Off off end
; 1678 : 		return (this->_Myptr()[_Off]);
; 1679 : 		}
; 1680 : 
; 1681 : 	reference operator[](size_type _Off)
; 1682 : 		{	// subscript mutable sequence
; 1683 :  #if _ITERATOR_DEBUG_LEVEL == 2
; 1684 : 		if (this->_Mysize < _Off)	// sic
; 1685 : 			_DEBUG_ERROR("string subscript out of range");
; 1686 : 
; 1687 :  #elif _ITERATOR_DEBUG_LEVEL == 1
; 1688 : 		_SCL_SECURE_VALIDATE_RANGE(_Off <= this->_Mysize);	// sic
; 1689 :  #endif /* _ITERATOR_DEBUG_LEVEL == 2 */
; 1690 : 
; 1691 : 		return (this->_Myptr()[_Off]);
; 1692 : 		}
; 1693 : 
; 1694 : 	const_reference operator[](size_type _Off) const
; 1695 : 		{	// subscript nonmutable sequence
; 1696 :  #if _ITERATOR_DEBUG_LEVEL == 2
; 1697 : 		if (this->_Mysize < _Off)	// sic
; 1698 : 			_DEBUG_ERROR("string subscript out of range");
; 1699 : 
; 1700 :  #elif _ITERATOR_DEBUG_LEVEL == 1
; 1701 : 		_SCL_SECURE_VALIDATE_RANGE(_Off <= this->_Mysize);	// sic
; 1702 :  #endif /* _ITERATOR_DEBUG_LEVEL == 2 */
; 1703 : 
; 1704 : 		return (this->_Myptr()[_Off]);
; 1705 : 		}
; 1706 : 
; 1707 : 	void push_back(_Elem _Ch)
; 1708 : 		{	// insert element at end
; 1709 : 		insert(end(), _Ch);
; 1710 : 		}
; 1711 : 
; 1712 : 	void pop_back()
; 1713 : 		{	// erase element at end
; 1714 : 		erase(this->_Mysize - 1);	// throws if _Mysize == 0
; 1715 : 		}
; 1716 : 
; 1717 : 	reference front()
; 1718 : 		{	// return first element of mutable sequence
; 1719 : 		return (*begin());
; 1720 : 		}
; 1721 : 
; 1722 : 	const_reference front() const
; 1723 : 		{	// return first element of nonmutable sequence
; 1724 : 		return (*begin());
; 1725 : 		}
; 1726 : 
; 1727 : 	reference back()
; 1728 : 		{	// return last element of mutable sequence
; 1729 : 		return (*(end() - 1));
; 1730 : 		}
; 1731 : 
; 1732 : 	const_reference back() const
; 1733 : 		{	// return last element of nonmutable sequence
; 1734 : 		return (*(end() - 1));
; 1735 : 		}
; 1736 : 
; 1737 : 	const _Elem *c_str() const _NOEXCEPT
; 1738 : 		{	// return pointer to null-terminated nonmutable array
; 1739 : 		return (this->_Myptr());
; 1740 : 		}
; 1741 : 
; 1742 : 	const _Elem *data() const _NOEXCEPT
; 1743 : 		{	// return pointer to nonmutable array
; 1744 : 		return (c_str());
; 1745 : 		}
; 1746 : 
; 1747 : 	size_type length() const _NOEXCEPT
; 1748 : 		{	// return length of sequence
; 1749 : 		return (this->_Mysize);
; 1750 : 		}
; 1751 : 
; 1752 : 	size_type size() const _NOEXCEPT
; 1753 : 		{	// return length of sequence
; 1754 : 		return (this->_Mysize);
; 1755 : 		}
; 1756 : 
; 1757 : 	size_type max_size() const _NOEXCEPT
; 1758 : 		{	// return maximum possible length of sequence
; 1759 : 		size_type _Num = this->_Getal().max_size();
; 1760 : 		return (_Num <= 1 ? 1 : _Num - 1);
